(dp0
I1
(dp1
S'probability'
p2
(dp3
S'neg'
p4
F0.5447104399507214
sS'neutral'
p5
F0.5225935369314391
sS'pos'
p6
F0.4552895600492785
ssS'label'
p7
g5
ssI2
(dp8
g2
(dp9
g4
F0.5203220971960087
sg5
F0.22278186805387556
sg6
F0.4796779028039912
ssg7
g4
ssI3
(dp10
g2
(dp11
g4
F0.4959532935456531
sg5
F0.37470631937750154
sg6
F0.5040467064543469
ssg7
g6
ssI4
(dp12
g2
(dp13
g4
F0.6210379103831158
sg5
F0.061977296263997284
sg6
F0.3789620896168842
ssg7
g4
ssI5
(dp14
g2
(dp15
g4
F0.5474808366576048
sg5
F0.3600152258359915
sg6
F0.45251916334239517
ssg7
g4
ssI6
(dp16
g2
(dp17
g4
F0.6030499676508969
sg5
F0.5272115021275255
sg6
F0.3969500323491031
ssg7
g5
ssI7
(dp18
g2
(dp19
g4
F0.4498006024276411
sg5
F0.5738519314965168
sg6
F0.5501993975723589
ssg7
g5
ssI8
(dp20
g2
(dp21
g4
F0.43791425835010533
sg5
F0.24693969269895585
sg6
F0.5620857416498947
ssg7
g6
ssI9
(dp22
g2
(dp23
g4
F0.5262626843416325
sg5
F0.4438525256909401
sg6
F0.4737373156583675
ssg7
g4
ssI10
(dp24
g2
(dp25
g4
F0.622218514632827
sg5
F0.03968479926672474
sg6
F0.377781485367173
ssg7
g4
ssI11
(dp26
g2
(dp27
g4
F0.8317590380293778
sg5
F0.40475921423248346
sg6
F0.16824096197062222
ssg7
g4
ssI12
(dp28
g2
(dp29
g4
F0.6236724089094239
sg5
F0.16549929455675214
sg6
F0.37632759109057606
ssg7
g4
ssI13
(dp30
g2
(dp31
g4
F0.5073658854468177
sg5
F0.19464818039063034
sg6
F0.49263411455318235
ssg7
g4
ssI14
(dp32
g2
(dp33
g4
F0.5095519989067516
sg5
F0.5950890614040548
sg6
F0.4904480010932484
ssg7
g5
ssI15
(dp34
g2
(dp35
g4
F0.43258631672926284
sg5
F0.22307985416276044
sg6
F0.5674136832707372
ssg7
g6
ssI16
(dp36
g2
(dp37
g4
F0.6555823102889249
sg5
F0.024175062654296562
sg6
F0.34441768971107506
ssg7
g4
ssI17
(dp38
g2
(dp39
g4
F0.6111406314442965
sg5
F0.12196455561250132
sg6
F0.38885936855570347
ssg7
g4
ssI18
(dp40
g2
(dp41
g4
F0.41613621628331043
sg5
F0.353772660989855
sg6
F0.5838637837166896
ssg7
g6
ssI19
(dp42
g2
(dp43
g4
F0.5938866172309203
sg5
F0.19575916448602046
sg6
F0.40611338276907966
ssg7
g4
ssI20
(dp44
g2
(dp45
g4
F0.7966071224754411
sg5
F0.9250075104762429
sg6
F0.2033928775245589
ssg7
g5
ssI21
(dp46
g2
(dp47
g4
F0.51890262640726
sg5
F0.4020304838223337
sg6
F0.48109737359273996
ssg7
g4
ssI22
(dp48
g2
(dp49
g4
F0.6732700345483038
sg5
F0.06695802958059983
sg6
F0.32672996545169614
ssg7
g4
ssI23
(dp50
g2
(dp51
g4
F0.5480816651991347
sg5
F0.39864592749584943
sg6
F0.45191833480086524
ssg7
g4
ssI24
(dp52
g2
(dp53
g4
F0.5153945266823754
sg5
F0.6952068206104984
sg6
F0.4846054733176246
ssg7
g5
ssI25
(dp54
g2
(dp55
g4
F0.47494735280815437
sg5
F0.0493750443904818
sg6
F0.5250526471918456
ssg7
g6
ssI26
(dp56
g2
(dp57
g4
F0.5303957892408595
sg5
F0.4162254401554588
sg6
F0.4696042107591405
ssg7
g4
ssI27
(dp58
g2
(dp59
g4
F0.37005987190073897
sg5
F0.4749222356556124
sg6
F0.629940128099261
ssg7
g6
ssI28
(dp60
g2
(dp61
g4
F0.5260964768207752
sg5
F0.2238257795006772
sg6
F0.47390352317922485
ssg7
g4
ssI29
(dp62
g2
(dp63
g4
F0.5019457172881141
sg5
F0.41020425169836877
sg6
F0.49805428271188584
ssg7
g4
ssI30
(dp64
g2
(dp65
g4
F0.8411418355179237
sg5
F0.09819045517005968
sg6
F0.15885816448207635
ssg7
g4
ssI31
(dp66
g2
(dp67
g4
F0.2058307832327504
sg5
F0.5375140609715877
sg6
F0.7941692167672496
ssg7
g5
ssI32
(dp68
g2
(dp69
g4
F0.47608318931079774
sg5
F0.1831302176173644
sg6
F0.5239168106892023
ssg7
g6
ssI33
(dp70
g2
(dp71
g4
F0.6030548632657339
sg5
F0.5655881878951015
sg6
F0.3969451367342661
ssg7
g5
ssI34
(dp72
g2
(dp73
g4
F0.31575556520818626
sg5
F0.5957852923817314
sg6
F0.6842444347918137
ssg7
g5
ssI35
(dp74
g2
(dp75
g4
F0.5663279539877313
sg5
F0.20873691639650196
sg6
F0.4336720460122688
ssg7
g4
ssI36
(dp76
g2
(dp77
g4
F0.3807270329054431
sg5
F0.10081821509118122
sg6
F0.6192729670945569
ssg7
g6
ssI37
(dp78
g2
(dp79
g4
F0.592792395297242
sg5
F0.2493967215725331
sg6
F0.40720760470275796
ssg7
g4
ssI38
(dp80
g2
(dp81
g4
F0.8547948022870469
sg5
F0.829375528231342
sg6
F0.14520519771295315
ssg7
g5
ssI39
(dp82
g2
(dp83
g4
F0.613349999567219
sg5
F0.18869034875637858
sg6
F0.38665000043278097
ssg7
g4
ssI40
(dp84
g2
(dp85
g4
F0.6031595783653629
sg5
F0.12551079324273132
sg6
F0.39684042163463706
ssg7
g4
ssI41
(dp86
g2
(dp87
g4
F0.5833620113484277
sg5
F0.3401481198766631
sg6
F0.41663798865157237
ssg7
g4
ssI42
(dp88
g2
(dp89
g4
F0.662885411072272
sg5
F0.1207611448786725
sg6
F0.3371145889277281
ssg7
g4
ssI43
(dp90
g2
(dp91
g4
F0.3645721913213045
sg5
F0.8951059992424528
sg6
F0.6354278086786955
ssg7
g5
ssI44
(dp92
g2
(dp93
g4
F0.40343238275392235
sg5
F0.5282140448765675
sg6
F0.5965676172460777
ssg7
g5
ssI45
(dp94
g2
(dp95
g4
F0.7500494861302829
sg5
F0.7815747165582874
sg6
F0.2499505138697171
ssg7
g5
ssI46
(dp96
g2
(dp97
g4
F0.6732418023239207
sg5
F0.4308707077876582
sg6
F0.3267581976760793
ssg7
g4
ssI47
(dp98
g2
(dp99
g4
F0.2982736413595902
sg5
F0.37979404763462044
sg6
F0.7017263586404098
ssg7
g6
ssI48
(dp100
g2
(dp101
g4
F0.5240093657043723
sg5
F0.14123969889455204
sg6
F0.47599063429562766
ssg7
g4
ssI49
(dp102
g2
(dp103
g4
F0.5884488785487962
sg5
F0.38876815132259307
sg6
F0.4115511214512038
ssg7
g4
ssI50
(dp104
g2
(dp105
g4
F0.5649306560501854
sg5
F0.7191054435090272
sg6
F0.43506934394981456
ssg7
g5
ssI51
(dp106
g2
(dp107
g4
F0.8043095794973701
sg5
F0.08181341749235138
sg6
F0.19569042050262986
ssg7
g4
ssI52
(dp108
g2
(dp109
g4
F0.33630146167042874
sg5
F0.880800675260318
sg6
F0.6636985383295713
ssg7
g5
ssI53
(dp110
g2
(dp111
g4
F0.8162613170343415
sg5
F0.7115682615731159
sg6
F0.18373868296565854
ssg7
g5
ssI54
(dp112
g2
(dp113
g4
F0.4223792220857443
sg5
F0.40046952394131313
sg6
F0.5776207779142557
ssg7
g6
ssI55
(dp114
g2
(dp115
g4
F0.7949906186551389
sg5
F0.20722254929989647
sg6
F0.2050093813448611
ssg7
g4
ssI56
(dp116
g2
(dp117
g4
F0.7529482037368285
sg5
F0.052517146842474494
sg6
F0.24705179626317159
ssg7
g4
ssI57
(dp118
g2
(dp119
g4
F0.4183005442152711
sg5
F0.4689144430968402
sg6
F0.5816994557847289
ssg7
g6
ssI58
(dp120
g2
(dp121
g4
F0.4616936699853039
sg5
F0.09560687597362909
sg6
F0.5383063300146961
ssg7
g6
ssI59
(dp122
g2
(dp123
g4
F0.5880286713070315
sg5
F0.3866303388886891
sg6
F0.41197132869296854
ssg7
g4
ssI60
(dp124
g2
(dp125
g4
F0.5628204390575904
sg5
F0.3606625980917905
sg6
F0.4371795609424097
ssg7
g4
ssI61
(dp126
g2
(dp127
g4
F0.5247452616887937
sg5
F0.7223200859832145
sg6
F0.47525473831120635
ssg7
g5
ssI62
(dp128
g2
(dp129
g4
F0.5864935245183094
sg5
F0.5645683642231645
sg6
F0.41350647548169067
ssg7
g5
ssI63
(dp130
g2
(dp131
g4
F0.795252434825013
sg5
F0.04923350281260349
sg6
F0.204747565174987
ssg7
g4
ssI64
(dp132
g2
(dp133
g4
F0.8819751133023926
sg5
F0.005163922587383442
sg6
F0.11802488669760731
ssg7
g4
ssI65
(dp134
g2
(dp135
g4
F0.6762228197299465
sg5
F0.1964249334819723
sg6
F0.3237771802700536
ssg7
g4
ssI66
(dp136
g2
(dp137
g4
F0.6256257321174423
sg5
F0.16267773929941007
sg6
F0.3743742678825577
ssg7
g4
ssI67
(dp138
g2
(dp139
g4
F0.46570330772071566
sg5
F0.6124318648130064
sg6
F0.5342966922792843
ssg7
g5
ssI68
(dp140
g2
(dp141
g4
F0.5004522510089713
sg5
F0.25278341980559554
sg6
F0.4995477489910287
ssg7
g4
ssI69
(dp142
g2
(dp143
g4
F0.8680745674363743
sg5
F0.14914804375114268
sg6
F0.13192543256362568
ssg7
g4
ssI70
(dp144
g2
(dp145
g4
F0.4566659073820578
sg5
F0.438879482275735
sg6
F0.5433340926179422
ssg7
g6
ssI71
(dp146
g2
(dp147
g4
F0.41921995506784515
sg5
F0.3778840968125389
sg6
F0.5807800449321548
ssg7
g6
ssI72
(dp148
g2
(dp149
g4
F0.5323731544073296
sg5
F0.1784438233265343
sg6
F0.46762684559267037
ssg7
g4
ssI73
(dp150
g2
(dp151
g4
F0.406160708437191
sg5
F0.9043107716086012
sg6
F0.593839291562809
ssg7
g5
ssI74
(dp152
g2
(dp153
g4
F0.4068731334735707
sg5
F0.17040252182742285
sg6
F0.5931268665264293
ssg7
g6
ssI75
(dp154
g2
(dp155
g4
F0.5154865409342777
sg5
F0.33357212100918004
sg6
F0.48451345906572224
ssg7
g4
ssI76
(dp156
g2
(dp157
g4
F0.4821678772884841
sg5
F0.08520501905148359
sg6
F0.5178321227115159
ssg7
g6
ssI77
(dp158
g2
(dp159
g4
F0.8666679221521538
sg5
F0.7900952895164698
sg6
F0.13333207784784615
ssg7
g5
ssI78
(dp160
g2
(dp161
g4
F0.6226506773888938
sg5
F0.289181043849738
sg6
F0.3773493226111062
ssg7
g4
ssI79
(dp162
g2
(dp163
g4
F0.5516342148528397
sg5
F0.04963963905271416
sg6
F0.4483657851471603
ssg7
g4
ssI80
(dp164
g2
(dp165
g4
F0.3187954643074927
sg5
F0.537573352117708
sg6
F0.6812045356925073
ssg7
g5
ssI81
(dp166
g2
(dp167
g4
F0.5391573320041048
sg5
F0.21314927206771003
sg6
F0.46084266799589524
ssg7
g4
ssI82
(dp168
g2
(dp169
g4
F0.4142248600518351
sg5
F0.30757470261759906
sg6
F0.5857751399481649
ssg7
g6
ssI83
(dp170
g2
(dp171
g4
F0.6331329424145752
sg5
F0.3451452417375583
sg6
F0.3668670575854248
ssg7
g4
ssI84
(dp172
g2
(dp173
g4
F0.6810850511216254
sg5
F0.11125597545023626
sg6
F0.31891494887837457
ssg7
g4
ssI85
(dp174
g2
(dp175
g4
F0.8517334715531939
sg5
F0.047140341761633675
sg6
F0.14826652844680616
ssg7
g4
ssI86
(dp176
g2
(dp177
g4
F0.47083995143698065
sg5
F0.48075891887170835
sg6
F0.5291600485630193
ssg7
g6
ssI87
(dp178
g2
(dp179
g4
F0.5355191596016603
sg5
F0.334175225594925
sg6
F0.4644808403983397
ssg7
g4
ssI88
(dp180
g2
(dp181
g4
F0.3955774713448108
sg5
F0.482280991199568
sg6
F0.6044225286551892
ssg7
g6
ssI89
(dp182
g2
(dp183
g4
F0.6788014665982888
sg5
F0.09135288994561169
sg6
F0.32119853340171123
ssg7
g4
ssI90
(dp184
g2
(dp185
g4
F0.6322778924067203
sg5
F0.6854188268837907
sg6
F0.3677221075932797
ssg7
g5
ssI91
(dp186
g2
(dp187
g4
F0.6597322079674866
sg5
F0.5242519815966683
sg6
F0.3402677920325135
ssg7
g5
ssI92
(dp188
g2
(dp189
g4
F0.6317173997999828
sg5
F0.22832633903498759
sg6
F0.3682826002000173
ssg7
g4
ssI93
(dp190
g2
(dp191
g4
F0.5599710429947197
sg5
F0.34185114461979826
sg6
F0.44002895700528033
ssg7
g4
ssI94
(dp192
g2
(dp193
g4
F0.4494377727290516
sg5
F0.0849711736204772
sg6
F0.5505622272709484
ssg7
g6
ssI95
(dp194
g2
(dp195
g4
F0.6489061620002645
sg5
F0.8405851051635849
sg6
F0.3510938379997355
ssg7
g5
ssI96
(dp196
g2
(dp197
g4
F0.6383346076755108
sg5
F0.5754345094503757
sg6
F0.3616653923244892
ssg7
g5
ssI97
(dp198
g2
(dp199
g4
F0.47563051385909727
sg5
F0.5141408675960673
sg6
F0.5243694861409027
ssg7
g5
ssI98
(dp200
g2
(dp201
g4
F0.6953845558884852
sg5
F0.09134223795242184
sg6
F0.30461544411151475
ssg7
g4
ssI99
(dp202
g2
(dp203
g4
F0.4026653839634602
sg5
F0.0065613754958099854
sg6
F0.5973346160365398
ssg7
g6
ssI100
(dp204
g2
(dp205
g4
F0.500432583132009
sg5
F0.20058845476216422
sg6
F0.499567416867991
ssg7
g4
ssI101
(dp206
g2
(dp207
g4
F0.709941308761234
sg5
F0.1828164236108881
sg6
F0.29005869123876604
ssg7
g4
ssI102
(dp208
g2
(dp209
g4
F0.4467908240412831
sg5
F0.564983832310177
sg6
F0.5532091759587169
ssg7
g5
ssI103
(dp210
g2
(dp211
g4
F0.7592620809786055
sg5
F0.060347836766353295
sg6
F0.24073791902139452
ssg7
g4
ssI104
(dp212
g2
(dp213
g4
F0.6757984442346578
sg5
F0.19693553646228723
sg6
F0.32420155576534215
ssg7
g4
ssI105
(dp214
g2
(dp215
g4
F0.5806306310183439
sg5
F0.19795773472271397
sg6
F0.4193693689816561
ssg7
g4
ssI106
(dp216
g2
(dp217
g4
F0.6619293053629467
sg5
F0.5077931007545954
sg6
F0.33807069463705325
ssg7
g5
ssI107
(dp218
g2
(dp219
g4
F0.5104351623460706
sg5
F0.5376726367396669
sg6
F0.48956483765392944
ssg7
g5
ssI108
(dp220
g2
(dp221
g4
F0.5519160342451516
sg5
F0.6124318648130064
sg6
F0.44808396575484843
ssg7
g5
ssI109
(dp222
g2
(dp223
g4
F0.45557255314511336
sg5
F0.6124318648130064
sg6
F0.5444274468548866
ssg7
g5
ssI110
(dp224
g2
(dp225
g4
F0.6390285580115306
sg5
F0.21323388081639497
sg6
F0.3609714419884694
ssg7
g4
ssI111
(dp226
g2
(dp227
g4
F0.7320632653823475
sg5
F0.4475700720488529
sg6
F0.26793673461765255
ssg7
g4
ssI112
(dp228
g2
(dp229
g4
F0.7206552548823594
sg5
F0.06329833368678349
sg6
F0.2793447451176406
ssg7
g4
ssI113
(dp230
g2
(dp231
g4
F0.6257222842996342
sg5
F0.7309635694676498
sg6
F0.37427771570036583
ssg7
g5
ssI114
(dp232
g2
(dp233
g4
F0.3184841781486698
sg5
F0.42545617065972924
sg6
F0.6815158218513302
ssg7
g6
ssI115
(dp234
g2
(dp235
g4
F0.6530964692441655
sg5
F0.3472047125273847
sg6
F0.34690353075583447
ssg7
g4
ssI116
(dp236
g2
(dp237
g4
F0.5271235222968258
sg5
F0.4030714940682085
sg6
F0.47287647770317415
ssg7
g4
ssI117
(dp238
g2
(dp239
g4
F0.5257143072293038
sg5
F0.1315726259376961
sg6
F0.47428569277069615
ssg7
g4
ssI118
(dp240
g2
(dp241
g4
F0.4716943065801117
sg5
F0.4407544917578532
sg6
F0.5283056934198883
ssg7
g6
ssI119
(dp242
g2
(dp243
g4
F0.5683768226128525
sg5
F0.5698547934265901
sg6
F0.43162317738714745
ssg7
g5
ssI120
(dp244
g2
(dp245
g4
F0.7249377864697899
sg5
F0.07632982830207848
sg6
F0.2750622135302101
ssg7
g4
ssI121
(dp246
g2
(dp247
g4
F0.527158520063113
sg5
F0.6010484356479863
sg6
F0.47284147993688697
ssg7
g5
ssI122
(dp248
g2
(dp249
g4
F0.6802972745039212
sg5
F0.10421975835409196
sg6
F0.3197027254960788
ssg7
g4
ssI123
(dp250
g2
(dp251
g4
F0.742744088695878
sg5
F0.12401852907839585
sg6
F0.2572559113041219
ssg7
g4
ssI124
(dp252
g2
(dp253
g4
F0.6622864126093315
sg5
F0.17587428411110528
sg6
F0.3377135873906685
ssg7
g4
ssI125
(dp254
g2
(dp255
g4
F0.5779666900344932
sg5
F0.25281912342799023
sg6
F0.4220333099655068
ssg7
g4
ssI126
(dp256
g2
(dp257
g4
F0.5546799986736473
sg5
F0.12324360773029454
sg6
F0.4453200013263528
ssg7
g4
ssI127
(dp258
g2
(dp259
g4
F0.7953852223611013
sg5
F0.1351958714844641
sg6
F0.2046147776388987
ssg7
g4
ssI128
(dp260
g2
(dp261
g4
F0.6481973773462275
sg5
F0.18469025133718842
sg6
F0.35180262265377243
ssg7
g4
ssI129
(dp262
g2
(dp263
g4
F0.8106123912099512
sg5
F0.10110083394986358
sg6
F0.18938760879004884
ssg7
g4
ssI130
(dp264
g2
(dp265
g4
F0.7674710460171665
sg5
F0.11305663603991174
sg6
F0.23252895398283352
ssg7
g4
ssI131
(dp266
g2
(dp267
g4
F0.4034915609389633
sg5
F0.3421950402489457
sg6
F0.5965084390610367
ssg7
g6
ssI132
(dp268
g2
(dp269
g4
F0.5851170330072313
sg5
F0.021764862895865444
sg6
F0.4148829669927687
ssg7
g4
ssI133
(dp270
g2
(dp271
g4
F0.7520038863752795
sg5
F0.374124015909931
sg6
F0.24799611362472052
ssg7
g4
ssI134
(dp272
g2
(dp273
g4
F0.6158691407550986
sg5
F0.19608126935712225
sg6
F0.3841308592449014
ssg7
g4
ssI135
(dp274
g2
(dp275
g4
F0.44801310631404
sg5
F0.173237340540861
sg6
F0.55198689368596
ssg7
g6
ssI136
(dp276
g2
(dp277
g4
F0.5381650421989818
sg5
F0.4501226398014208
sg6
F0.46183495780101824
ssg7
g4
ssI137
(dp278
g2
(dp279
g4
F0.6965091752895125
sg5
F0.16150795735722615
sg6
F0.30349082471048755
ssg7
g4
ssI138
(dp280
g2
(dp281
g4
F0.565787301843423
sg5
F0.38206730227920876
sg6
F0.43421269815657704
ssg7
g4
ssI139
(dp282
g2
(dp283
g4
F0.5748220229859426
sg5
F0.9225288229457584
sg6
F0.4251779770140573
ssg7
g5
ssI140
(dp284
g2
(dp285
g4
F0.574552482232447
sg5
F0.7799236918080794
sg6
F0.425447517767553
ssg7
g5
ssI141
(dp286
g2
(dp287
g4
F0.5495361016716094
sg5
F0.19947722430125323
sg6
F0.4504638983283907
ssg7
g4
ssI142
(dp288
g2
(dp289
g4
F0.7629016782653921
sg5
F0.2259728057146387
sg6
F0.23709832173460785
ssg7
g4
ssI143
(dp290
g2
(dp291
g4
F0.7793837401738316
sg5
F0.16177300641171125
sg6
F0.2206162598261684
ssg7
g4
ssI144
(dp292
g2
(dp293
g4
F0.7047819451556269
sg5
F0.3098089252474478
sg6
F0.29521805484437313
ssg7
g4
ssI145
(dp294
g2
(dp295
g4
F0.5768931066921594
sg5
F0.14615047625485003
sg6
F0.42310689330784057
ssg7
g4
ssI146
(dp296
g2
(dp297
g4
F0.8546065836771387
sg5
F0.21582191312877727
sg6
F0.14539341632286132
ssg7
g4
ssI147
(dp298
g2
(dp299
g4
F0.5665751663825066
sg5
F0.134912378276469
sg6
F0.4334248336174934
ssg7
g4
ssI148
(dp300
g2
(dp301
g4
F0.625341080605938
sg5
F0.6364247143480372
sg6
F0.37465891939406204
ssg7
g5
ssI149
(dp302
g2
(dp303
g4
F0.4683515153752221
sg5
F0.22885722408899625
sg6
F0.5316484846247779
ssg7
g6
ssI150
(dp304
g2
(dp305
g4
F0.6732592476804515
sg5
F0.14230294231542687
sg6
F0.32674075231954847
ssg7
g4
ssI151
(dp306
g2
(dp307
g4
F0.49685261520045987
sg5
F0.265993539835289
sg6
F0.5031473847995401
ssg7
g6
ssI152
(dp308
g2
(dp309
g4
F0.4281224575052496
sg5
F0.36204752991587313
sg6
F0.5718775424947504
ssg7
g6
ssI153
(dp310
g2
(dp311
g4
F0.7579178424664612
sg5
F0.1522766799907093
sg6
F0.24208215753353884
ssg7
g4
ssI154
(dp312
g2
(dp313
g4
F0.2732674722696824
sg5
F0.16347436481523608
sg6
F0.7267325277303176
ssg7
g6
ssI155
(dp314
g2
(dp315
g4
F0.7769467215073712
sg5
F0.2399038521583352
sg6
F0.2230532784926288
ssg7
g4
ssI156
(dp316
g2
(dp317
g4
F0.5626579610931159
sg5
F0.28324967399070106
sg6
F0.43734203890688406
ssg7
g4
ssI157
(dp318
g2
(dp319
g4
F0.3247725502871285
sg5
F0.10922409292280459
sg6
F0.6752274497128715
ssg7
g6
ssI158
(dp320
g2
(dp321
g4
F0.7615040092568037
sg5
F0.5826923111713737
sg6
F0.23849599074319627
ssg7
g5
ssI159
(dp322
g2
(dp323
g4
F0.636384356782019
sg5
F0.22117954053791508
sg6
F0.363615643217981
ssg7
g4
ssI160
(dp324
g2
(dp325
g4
F0.3942568681448556
sg5
F0.47018361496219446
sg6
F0.6057431318551444
ssg7
g6
ssI161
(dp326
g2
(dp327
g4
F0.4230225808314697
sg5
F0.43825541573860005
sg6
F0.5769774191685303
ssg7
g6
ssI162
(dp328
g2
(dp329
g4
F0.4948153626077312
sg5
F0.5420682597003049
sg6
F0.5051846373922688
ssg7
g5
ssI163
(dp330
g2
(dp331
g4
F0.6472550577856774
sg5
F0.2265533930188711
sg6
F0.3527449422143226
ssg7
g4
ssI164
(dp332
g2
(dp333
g4
F0.4539037242378955
sg5
F0.3309635089097018
sg6
F0.5460962757621045
ssg7
g6
ssI165
(dp334
g2
(dp335
g4
F0.423463205882323
sg5
F0.0842074903487124
sg6
F0.576536794117677
ssg7
g6
ssI166
(dp336
g2
(dp337
g4
F0.4090558142125258
sg5
F0.8689777507914059
sg6
F0.5909441857874742
ssg7
g5
ssI167
(dp338
g2
(dp339
g4
F0.7710706957554763
sg5
F0.27352874251872306
sg6
F0.2289293042445238
ssg7
g4
ssI168
(dp340
g2
(dp341
g4
F0.9107643312562714
sg5
F0.25528500884479705
sg6
F0.08923566874372854
ssg7
g4
ssI169
(dp342
g2
(dp343
g4
F0.8329149575246847
sg5
F0.4014910648097005
sg6
F0.1670850424753153
ssg7
g4
ssI170
(dp344
g2
(dp345
g4
F0.7179161198312908
sg5
F0.6474193407793485
sg6
F0.2820838801687092
ssg7
g5
ssI171
(dp346
g2
(dp347
g4
F0.7247874596162632
sg5
F0.3542640501406124
sg6
F0.27521254038373677
ssg7
g4
ssI172
(dp348
g2
(dp349
g4
F0.3844377590458725
sg5
F0.0509678069576907
sg6
F0.6155622409541275
ssg7
g6
ssI173
(dp350
g2
(dp351
g4
F0.489325559521848
sg5
F0.6855560183062465
sg6
F0.510674440478152
ssg7
g5
ssI174
(dp352
g2
(dp353
g4
F0.4223830804239237
sg5
F0.40619139838252855
sg6
F0.5776169195760763
ssg7
g6
ssI175
(dp354
g2
(dp355
g4
F0.33920574190482733
sg5
F0.3227550879188681
sg6
F0.6607942580951727
ssg7
g6
ssI176
(dp356
g2
(dp357
g4
F0.7583478591972612
sg5
F0.0003545450615715445
sg6
F0.24165214080273878
ssg7
g4
ssI177
(dp358
g2
(dp359
g4
F0.48384407389611284
sg5
F0.09354143066342187
sg6
F0.5161559261038872
ssg7
g6
ssI178
(dp360
g2
(dp361
g4
F0.6706117850509103
sg5
F0.3284223947373881
sg6
F0.3293882149490897
ssg7
g4
ssI179
(dp362
g2
(dp363
g4
F0.7299533666349609
sg5
F0.08899819318315445
sg6
F0.2700466333650391
ssg7
g4
ssI180
(dp364
g2
(dp365
g4
F0.5743475991559777
sg5
F0.687272653723066
sg6
F0.4256524008440224
ssg7
g5
ssI181
(dp366
g2
(dp367
g4
F0.6689140023916755
sg5
F0.13022764862419697
sg6
F0.33108599760832447
ssg7
g4
ssI182
(dp368
g2
(dp369
g4
F0.3885205943095056
sg5
F0.49547334792124004
sg6
F0.6114794056904944
ssg7
g6
ssI183
(dp370
g2
(dp371
g4
F0.673258557971012
sg5
F0.13459386288152128
sg6
F0.32674144202898797
ssg7
g4
ssI184
(dp372
g2
(dp373
g4
F0.5095519989067516
sg5
F0.5950890614040548
sg6
F0.4904480010932484
ssg7
g5
ssI185
(dp374
g2
(dp375
g4
F0.7854516156313178
sg5
F0.4981081250052361
sg6
F0.21454838436868218
ssg7
g4
ssI186
(dp376
g2
(dp377
g4
F0.6730889673909829
sg5
F0.8534357891192664
sg6
F0.3269110326090171
ssg7
g5
ssI187
(dp378
g2
(dp379
g4
F0.5415232517457085
sg5
F0.7324926002380482
sg6
F0.4584767482542916
ssg7
g5
ssI188
(dp380
g2
(dp381
g4
F0.5346408694068728
sg5
F0.3650859355399036
sg6
F0.46535913059312717
ssg7
g4
ssI189
(dp382
g2
(dp383
g4
F0.6738594770105548
sg5
F0.1102867538462982
sg6
F0.3261405229894452
ssg7
g4
ssI190
(dp384
g2
(dp385
g4
F0.8319246777291028
sg5
F0.07489150163523277
sg6
F0.16807532227089717
ssg7
g4
ssI191
(dp386
g2
(dp387
g4
F0.670381507349168
sg5
F0.07837414344116807
sg6
F0.329618492650832
ssg7
g4
ssI192
(dp388
g2
(dp389
g4
F0.7341906621160539
sg5
F0.22972507669315545
sg6
F0.2658093378839462
ssg7
g4
ssI193
(dp390
g2
(dp391
g4
F0.4080514820136144
sg5
F0.53176319310568
sg6
F0.5919485179863856
ssg7
g5
ssI194
(dp392
g2
(dp393
g4
F0.37203798147325273
sg5
F0.21173544968174374
sg6
F0.6279620185267473
ssg7
g6
ssI195
(dp394
g2
(dp395
g4
F0.6816103169358596
sg5
F0.5802645316392404
sg6
F0.3183896830641404
ssg7
g5
ssI196
(dp396
g2
(dp397
g4
F0.5889807242244802
sg5
F0.1933704799551961
sg6
F0.4110192757755197
ssg7
g4
ssI197
(dp398
g2
(dp399
g4
F0.5964770883822702
sg5
F0.8558736793968741
sg6
F0.4035229116177298
ssg7
g5
ssI198
(dp400
g2
(dp401
g4
F0.5057274095658936
sg5
F0.48424307232473796
sg6
F0.49427259043410643
ssg7
g4
ssI199
(dp402
g2
(dp403
g4
F0.47083198664924875
sg5
F0.1846739096901611
sg6
F0.5291680133507513
ssg7
g6
ssI200
(dp404
g2
(dp405
g4
F0.5150435711743228
sg5
F0.44064683499664703
sg6
F0.48495642882567724
ssg7
g4
ssI201
(dp406
g2
(dp407
g4
F0.4614902037695925
sg5
F0.3212930059691128
sg6
F0.5385097962304075
ssg7
g6
ssI202
(dp408
g2
(dp409
g4
F0.6276613132263515
sg5
F0.8770110528133143
sg6
F0.3723386867736484
ssg7
g5
ssI203
(dp410
g2
(dp411
g4
F0.59495740020235
sg5
F0.028388229170758266
sg6
F0.40504259979765
ssg7
g4
ssI204
(dp412
g2
(dp413
g4
F0.5528276661181698
sg5
F0.1970705309948492
sg6
F0.4471723338818302
ssg7
g4
ssI205
(dp414
g2
(dp415
g4
F0.7478889380760594
sg5
F0.1659532213438743
sg6
F0.25211106192394067
ssg7
g4
ssI206
(dp416
g2
(dp417
g4
F0.7619889475178037
sg5
F0.6994505911502937
sg6
F0.23801105248219628
ssg7
g5
ssI207
(dp418
g2
(dp419
g4
F0.5084116094058959
sg5
F0.6124318648130064
sg6
F0.49158839059410403
ssg7
g5
ssI208
(dp420
g2
(dp421
g4
F0.6697506709568422
sg5
F0.21761051816054797
sg6
F0.33024932904315785
ssg7
g4
ssI209
(dp422
g2
(dp423
g4
F0.4554557059863604
sg5
F0.17079733995516835
sg6
F0.5445442940136396
ssg7
g6
ssI210
(dp424
g2
(dp425
g4
F0.7641487832020248
sg5
F0.14335947936011842
sg6
F0.23585121679797516
ssg7
g4
ssI211
(dp426
g2
(dp427
g4
F0.5182963456611182
sg5
F0.42382577950067724
sg6
F0.48170365433888185
ssg7
g4
ssI212
(dp428
g2
(dp429
g4
F0.4013259868303276
sg5
F0.5474076502205015
sg6
F0.5986740131696724
ssg7
g5
ssI213
(dp430
g2
(dp431
g4
F0.6141484931138546
sg5
F0.40389852555328404
sg6
F0.38585150688614545
ssg7
g4
ssI214
(dp432
g2
(dp433
g4
F0.6138438853581466
sg5
F0.27716998574187485
sg6
F0.3861561146418534
ssg7
g4
ssI215
(dp434
g2
(dp435
g4
F0.7143171013445565
sg5
F0.16682800376211396
sg6
F0.2856828986554435
ssg7
g4
ssI216
(dp436
g2
(dp437
g4
F0.817092792896499
sg5
F0.06367031542602329
sg6
F0.182907207103501
ssg7
g4
ssI217
(dp438
g2
(dp439
g4
F0.4549499233711407
sg5
F0.9571784964518715
sg6
F0.5450500766288593
ssg7
g5
ssI218
(dp440
g2
(dp441
g4
F0.7072990659790472
sg5
F0.4967801170793174
sg6
F0.29270093402095276
ssg7
g4
ssI219
(dp442
g2
(dp443
g4
F0.4727833463720075
sg5
F0.5390287892272818
sg6
F0.5272166536279925
ssg7
g5
ssI220
(dp444
g2
(dp445
g4
F0.5001400715458191
sg5
F0.14223567078497845
sg6
F0.499859928454181
ssg7
g4
ssI221
(dp446
g2
(dp447
g4
F0.7213403758593624
sg5
F0.39508906140405475
sg6
F0.2786596241406376
ssg7
g4
ssI222
(dp448
g2
(dp449
g4
F0.803177551327796
sg5
F0.04682198650256411
sg6
F0.196822448672204
ssg7
g4
ssI223
(dp450
g2
(dp451
g4
F0.4955617932695334
sg5
F0.25353132735784906
sg6
F0.5044382067304666
ssg7
g6
ssI224
(dp452
g2
(dp453
g4
F0.6323184233526833
sg5
F0.1641262158753063
sg6
F0.36768157664731677
ssg7
g4
ssI225
(dp454
g2
(dp455
g4
F0.5621062704991123
sg5
F0.41601250923080385
sg6
F0.4378937295008877
ssg7
g4
ssI226
(dp456
g2
(dp457
g4
F0.4378455648550835
sg5
F0.17341142668495266
sg6
F0.5621544351449165
ssg7
g6
ssI227
(dp458
g2
(dp459
g4
F0.5800295454246472
sg5
F0.16950483562773622
sg6
F0.41997045457535276
ssg7
g4
ssI228
(dp460
g2
(dp461
g4
F0.39267579103019323
sg5
F0.4951403688354696
sg6
F0.6073242089698068
ssg7
g6
ssI229
(dp462
g2
(dp463
g4
F0.8277743334331118
sg5
F0.1200828762182831
sg6
F0.17222566656688823
ssg7
g4
ssI230
(dp464
g2
(dp465
g4
F0.6492200856672624
sg5
F0.3952000292706162
sg6
F0.3507799143327376
ssg7
g4
ssI231
(dp466
g2
(dp467
g4
F0.590321371494182
sg5
F0.1632807861917437
sg6
F0.409678628505818
ssg7
g4
ssI232
(dp468
g2
(dp469
g4
F0.7312642155918481
sg5
F0.1403899587982367
sg6
F0.26873578440815193
ssg7
g4
ssI233
(dp470
g2
(dp471
g4
F0.5957058450930672
sg5
F0.4204322070024669
sg6
F0.40429415490693277
ssg7
g4
ssI234
(dp472
g2
(dp473
g4
F0.42788511487078185
sg5
F0.011881459960675201
sg6
F0.5721148851292182
ssg7
g6
ssI235
(dp474
g2
(dp475
g4
F0.7346141717050438
sg5
F0.7728206556684403
sg6
F0.26538582829495616
ssg7
g5
ssI236
(dp476
g2
(dp477
g4
F0.5210714967180621
sg5
F0.1185650225984813
sg6
F0.47892850328193787
ssg7
g4
ssI237
(dp478
g2
(dp479
g4
F0.30695210901157566
sg5
F0.2770085480604049
sg6
F0.6930478909884243
ssg7
g6
ssI238
(dp480
g2
(dp481
g4
F0.3769480757103135
sg5
F0.8191639502245067
sg6
F0.6230519242896865
ssg7
g5
ssI239
(dp482
g2
(dp483
g4
F0.7106761271149743
sg5
F0.1029803120061691
sg6
F0.2893238728850257
ssg7
g4
ssI240
(dp484
g2
(dp485
g4
F0.5846129131362521
sg5
F0.10144413563214745
sg6
F0.415387086863748
ssg7
g4
ssI241
(dp486
g2
(dp487
g4
F0.6406885458785407
sg5
F0.47400950214428256
sg6
F0.35931145412145926
ssg7
g4
ssI242
(dp488
g2
(dp489
g4
F0.3859422950180993
sg5
F0.7592119944033137
sg6
F0.6140577049819007
ssg7
g5
ssI243
(dp490
g2
(dp491
g4
F0.8319858257011524
sg5
F0.11745106238356033
sg6
F0.1680141742988476
ssg7
g4
ssI244
(dp492
g2
(dp493
g4
F0.8202011413703562
sg5
F0.26884842686376337
sg6
F0.17979885862964387
ssg7
g4
ssI245
(dp494
g2
(dp495
g4
F0.6635589443041866
sg5
F0.23185677228439627
sg6
F0.3364410556958134
ssg7
g4
ssI246
(dp496
g2
(dp497
g4
F0.5769465523163599
sg5
F0.18325985190933572
sg6
F0.42305344768364
ssg7
g4
ssI247
(dp498
g2
(dp499
g4
F0.6025657755880803
sg5
F0.1608221698920509
sg6
F0.39743422441191967
ssg7
g4
ssI248
(dp500
g2
(dp501
g4
F0.5826543010470986
sg5
F0.33409635457054176
sg6
F0.41734569895290147
ssg7
g4
ssI249
(dp502
g2
(dp503
g4
F0.45029670752973827
sg5
F0.4002606880472748
sg6
F0.5497032924702617
ssg7
g6
ssI250
(dp504
g2
(dp505
g4
F0.5388251657747598
sg5
F0.16227354264029573
sg6
F0.46117483422524025
ssg7
g4
ssI251
(dp506
g2
(dp507
g4
F0.5709692695201463
sg5
F0.7083106527616069
sg6
F0.4290307304798538
ssg7
g5
ssI252
(dp508
g2
(dp509
g4
F0.8434696860020241
sg5
F0.7777687453671577
sg6
F0.15653031399797596
ssg7
g5
ssI253
(dp510
g2
(dp511
g4
F0.8219303175950412
sg5
F0.19450024049320044
sg6
F0.17806968240495885
ssg7
g4
ssI254
(dp512
g2
(dp513
g4
F0.7167369993448746
sg5
F0.2276573146673786
sg6
F0.28326300065512544
ssg7
g4
ssI255
(dp514
g2
(dp515
g4
F0.3542861138153828
sg5
F0.6206803206350439
sg6
F0.6457138861846172
ssg7
g5
ssI256
(dp516
g2
(dp517
g4
F0.6014983022259782
sg5
F0.11337140546352098
sg6
F0.3985016977740218
ssg7
g4
ssI257
(dp518
g2
(dp519
g4
F0.5170746718804182
sg5
F0.24265137148295557
sg6
F0.4829253281195817
ssg7
g4
ssI258
(dp520
g2
(dp521
g4
F0.6265440427617217
sg5
F0.6373535108612137
sg6
F0.37345595723827824
ssg7
g5
ssI259
(dp522
g2
(dp523
g4
F0.5879686722280166
sg5
F0.44431756403147676
sg6
F0.4120313277719834
ssg7
g4
ssI260
(dp524
g2
(dp525
g4
F0.4992783424886724
sg5
F0.1299987027393157
sg6
F0.5007216575113276
ssg7
g6
ssI261
(dp526
g2
(dp527
g4
F0.5863663204533565
sg5
F0.9311996047902326
sg6
F0.41363367954664354
ssg7
g5
ssI262
(dp528
g2
(dp529
g4
F0.5614217010603273
sg5
F0.37385706346378794
sg6
F0.4385782989396727
ssg7
g4
ssI263
(dp530
g2
(dp531
g4
F0.45445254702028226
sg5
F0.40808797223992355
sg6
F0.5455474529797177
ssg7
g6
ssI264
(dp532
g2
(dp533
g4
F0.5716635790218194
sg5
F0.7280928897624328
sg6
F0.42833642097818064
ssg7
g5
ssI265
(dp534
g2
(dp535
g4
F0.6473716177597528
sg5
F0.23526950765637245
sg6
F0.3526283822402472
ssg7
g4
ssI266
(dp536
g2
(dp537
g4
F0.543287545086832
sg5
F0.20868334492335108
sg6
F0.45671245491316803
ssg7
g4
ssI267
(dp538
g2
(dp539
g4
F0.3690997928586024
sg5
F0.2892899547516867
sg6
F0.6309002071413976
ssg7
g6
ssI268
(dp540
g2
(dp541
g4
F0.4476347222477146
sg5
F0.8411663725912918
sg6
F0.5523652777522854
ssg7
g5
ssI269
(dp542
g2
(dp543
g4
F0.556409945590467
sg5
F0.5828342819500969
sg6
F0.44359005440953303
ssg7
g5
ssI270
(dp544
g2
(dp545
g4
F0.7108698619100977
sg5
F0.12780456718532568
sg6
F0.28913013808990223
ssg7
g4
ssI271
(dp546
g2
(dp547
g4
F0.620920917651654
sg5
F0.4123032096111503
sg6
F0.379079082348346
ssg7
g4
ssI272
(dp548
g2
(dp549
g4
F0.5354448866133333
sg5
F0.09658575496090299
sg6
F0.46455511338666666
ssg7
g4
ssI273
(dp550
g2
(dp551
g4
F0.6622290422732469
sg5
F0.21558253029544253
sg6
F0.3377709577267531
ssg7
g4
ssI274
(dp552
g2
(dp553
g4
F0.5915327330975155
sg5
F0.18359607721551383
sg6
F0.40846726690248447
ssg7
g4
ssI275
(dp554
g2
(dp555
g4
F0.8645338686824686
sg5
F0.5320506207600726
sg6
F0.13546613131753144
ssg7
g5
ssI276
(dp556
g2
(dp557
g4
F0.5475101007916617
sg5
F0.7361464708411122
sg6
F0.45248989920833826
ssg7
g5
ssI277
(dp558
g2
(dp559
g4
F0.6371692855808466
sg5
F0.5546924872843236
sg6
F0.3628307144191533
ssg7
g5
ssI278
(dp560
g2
(dp561
g4
F0.4918475844352995
sg5
F0.38933272261483376
sg6
F0.5081524155647005
ssg7
g6
ssI279
(dp562
g2
(dp563
g4
F0.3132127946001161
sg5
F0.1348634066664418
sg6
F0.6867872053998839
ssg7
g6
ssI280
(dp564
g2
(dp565
g4
F0.5987683978582623
sg5
F0.6029317608388232
sg6
F0.40123160214173775
ssg7
g5
ssI281
(dp566
g2
(dp567
g4
F0.34512708203494524
sg5
F0.43825541573860005
sg6
F0.6548729179650548
ssg7
g6
ssI282
(dp568
g2
(dp569
g4
F0.4140133134308539
sg5
F0.3251536807764034
sg6
F0.5859866865691461
ssg7
g6
ssI283
(dp570
g2
(dp571
g4
F0.55491950345504
sg5
F0.4274974181512438
sg6
F0.44508049654496
ssg7
g4
ssI284
(dp572
g2
(dp573
g4
F0.41306948677509847
sg5
F0.23765037814405932
sg6
F0.5869305132249015
ssg7
g6
ssI285
(dp574
g2
(dp575
g4
F0.48904809509896796
sg5
F0.5129070694060212
sg6
F0.510951904901032
ssg7
g5
ssI286
(dp576
g2
(dp577
g4
F0.5285641616408072
sg5
F0.8293615744058563
sg6
F0.4714358383591928
ssg7
g5
ssI287
(dp578
g2
(dp579
g4
F0.3941164270494937
sg5
F0.36114591375527577
sg6
F0.6058835729505063
ssg7
g6
ssI288
(dp580
g2
(dp581
g4
F0.8889201043353776
sg5
F0.1426680156825677
sg6
F0.1110798956646224
ssg7
g4
ssI289
(dp582
g2
(dp583
g4
F0.5870287285436653
sg5
F0.008768730646508429
sg6
F0.4129712714563347
ssg7
g4
ssI290
(dp584
g2
(dp585
g4
F0.35816523628546326
sg5
F0.8479574185720969
sg6
F0.6418347637145367
ssg7
g5
ssI291
(dp586
g2
(dp587
g4
F0.804858886070869
sg5
F0.21145901846211224
sg6
F0.19514111392913108
ssg7
g4
ssI292
(dp588
g2
(dp589
g4
F0.534031711583632
sg5
F0.6112106779487143
sg6
F0.46596828841636795
ssg7
g5
ssI293
(dp590
g2
(dp591
g4
F0.7389736108842241
sg5
F0.3284223947373881
sg6
F0.2610263891157759
ssg7
g4
ssI294
(dp592
g2
(dp593
g4
F0.7269006573488679
sg5
F0.5287247370688021
sg6
F0.27309934265113206
ssg7
g5
ssI295
(dp594
g2
(dp595
g4
F0.4505542081185132
sg5
F0.21666561082382266
sg6
F0.5494457918814868
ssg7
g6
ssI296
(dp596
g2
(dp597
g4
F0.8114949427537794
sg5
F0.472445590901266
sg6
F0.1885050572462206
ssg7
g4
ssI297
(dp598
g2
(dp599
g4
F0.786447566804511
sg5
F0.34357810127352156
sg6
F0.21355243319548897
ssg7
g4
ssI298
(dp600
g2
(dp601
g4
F0.6304420265620109
sg5
F0.3904376299930749
sg6
F0.36955797343798913
ssg7
g4
ssI299
(dp602
g2
(dp603
g4
F0.43195429029305776
sg5
F0.2798924873232061
sg6
F0.5680457097069422
ssg7
g6
ssI300
(dp604
g2
(dp605
g4
F0.6163715075130841
sg5
F0.15973349062605202
sg6
F0.3836284924869159
ssg7
g4
ssI301
(dp606
g2
(dp607
g4
F0.6067323262584019
sg5
F0.8996246975703849
sg6
F0.39326767374159816
ssg7
g5
ssI302
(dp608
g2
(dp609
g4
F0.6282005074501906
sg5
F0.0865164073767683
sg6
F0.3717994925498094
ssg7
g4
ssI303
(dp610
g2
(dp611
g4
F0.4431372912682847
sg5
F0.3615008642870085
sg6
F0.5568627087317153
ssg7
g6
ssI304
(dp612
g2
(dp613
g4
F0.5640180908509264
sg5
F0.21827661463035739
sg6
F0.43598190914907364
ssg7
g4
ssI305
(dp614
g2
(dp615
g4
F0.7279581807475001
sg5
F0.2061830767464611
sg6
F0.27204181925249993
ssg7
g4
ssI306
(dp616
g2
(dp617
g4
F0.4548698426197224
sg5
F0.11335300179912133
sg6
F0.5451301573802776
ssg7
g6
ssI307
(dp618
g2
(dp619
g4
F0.38621063467175754
sg5
F0.7570669791614927
sg6
F0.6137893653282425
ssg7
g5
ssI308
(dp620
g2
(dp621
g4
F0.39957872505001824
sg5
F0.6283022019980455
sg6
F0.6004212749499818
ssg7
g5
ssI309
(dp622
g2
(dp623
g4
F0.3932180775688937
sg5
F0.41891885041918736
sg6
F0.6067819224311063
ssg7
g6
ssI310
(dp624
g2
(dp625
g4
F0.4908408450630035
sg5
F0.08361840574386616
sg6
F0.5091591549369965
ssg7
g6
ssI311
(dp626
g2
(dp627
g4
F0.34962043214097416
sg5
F0.5188605388463722
sg6
F0.6503795678590258
ssg7
g5
ssI312
(dp628
g2
(dp629
g4
F0.4501383334963739
sg5
F0.5609429975556416
sg6
F0.5498616665036261
ssg7
g5
ssI313
(dp630
g2
(dp631
g4
F0.5948204070727813
sg5
F0.06953811308497727
sg6
F0.4051795929272187
ssg7
g4
ssI314
(dp632
g2
(dp633
g4
F0.6580311205185048
sg5
F0.5847533514249763
sg6
F0.3419688794814953
ssg7
g5
ssI315
(dp634
g2
(dp635
g4
F0.42060885688500893
sg5
F0.17235970754737276
sg6
F0.5793911431149911
ssg7
g6
ssI316
(dp636
g2
(dp637
g4
F0.48068927105008985
sg5
F0.1864925270425051
sg6
F0.5193107289499101
ssg7
g6
ssI317
(dp638
g2
(dp639
g4
F0.4934890091037717
sg5
F0.36632465950407794
sg6
F0.5065109908962283
ssg7
g6
ssI318
(dp640
g2
(dp641
g4
F0.4941352354261127
sg5
F0.20147001002787834
sg6
F0.5058647645738873
ssg7
g6
ssI319
(dp642
g2
(dp643
g4
F0.29373422530527216
sg5
F0.1105947276006838
sg6
F0.7062657746947278
ssg7
g6
ssI320
(dp644
g2
(dp645
g4
F0.8774259831163208
sg5
F0.11645649711502691
sg6
F0.12257401688367923
ssg7
g4
ssI321
(dp646
g2
(dp647
g4
F0.4713773816903859
sg5
F0.5944237359657735
sg6
F0.5286226183096141
ssg7
g5
ssI322
(dp648
g2
(dp649
g4
F0.5574750295936597
sg5
F0.21715339126578226
sg6
F0.44252497040634037
ssg7
g4
ssI323
(dp650
g2
(dp651
g4
F0.4724697576887428
sg5
F0.49608043620431297
sg6
F0.5275302423112572
ssg7
g6
ssI324
(dp652
g2
(dp653
g4
F0.4123217694940947
sg5
F0.3357308126710364
sg6
F0.5876782305059053
ssg7
g6
ssI325
(dp654
g2
(dp655
g4
F0.37936313098217056
sg5
F0.43825541573860005
sg6
F0.6206368690178294
ssg7
g6
ssI326
(dp656
g2
(dp657
g4
F0.6457101060705449
sg5
F0.23998136163507697
sg6
F0.3542898939294551
ssg7
g4
ssI327
(dp658
g2
(dp659
g4
F0.5470015341602079
sg5
F0.444597161353784
sg6
F0.45299846583979203
ssg7
g4
ssI328
(dp660
g2
(dp661
g4
F0.6648173230475359
sg5
F0.3019931504317297
sg6
F0.33518267695246406
ssg7
g4
ssI329
(dp662
g2
(dp663
g4
F0.29885853975968024
sg5
F0.3420647367428251
sg6
F0.7011414602403198
ssg7
g6
ssI330
(dp664
g2
(dp665
g4
F0.4217464746364209
sg5
F0.13653053939777254
sg6
F0.5782535253635791
ssg7
g6
ssI331
(dp666
g2
(dp667
g4
F0.3559682478806625
sg5
F0.2078538264058897
sg6
F0.6440317521193375
ssg7
g6
ssI332
(dp668
g2
(dp669
g4
F0.7576114695978753
sg5
F0.2756274411542046
sg6
F0.24238853040212474
ssg7
g4
ssI333
(dp670
g2
(dp671
g4
F0.6106488481163481
sg5
F0.39987582025402096
sg6
F0.38935115188365194
ssg7
g4
ssI334
(dp672
g2
(dp673
g4
F0.5666171057989486
sg5
F0.17224300825030822
sg6
F0.4333828942010514
ssg7
g4
ssI335
(dp674
g2
(dp675
g4
F0.6514669371837101
sg5
F0.12012893962856187
sg6
F0.34853306281629
ssg7
g4
ssI336
(dp676
g2
(dp677
g4
F0.65707850815594
sg5
F0.1815925449962703
sg6
F0.34292149184405996
ssg7
g4
ssI337
(dp678
g2
(dp679
g4
F0.77098931981901
sg5
F0.5556265512505579
sg6
F0.22901068018099002
ssg7
g5
ssI338
(dp680
g2
(dp681
g4
F0.5804360813930907
sg5
F0.18469679070834907
sg6
F0.41956391860690934
ssg7
g4
ssI339
(dp682
g2
(dp683
g4
F0.639240865722266
sg5
F0.3396111254234031
sg6
F0.360759134277734
ssg7
g4
ssI340
(dp684
g2
(dp685
g4
F0.6851229858577308
sg5
F0.17851166218048395
sg6
F0.3148770141422692
ssg7
g4
ssI341
(dp686
g2
(dp687
g4
F0.273717893820717
sg5
F0.26115066557108785
sg6
F0.726282106179283
ssg7
g6
ssI342
(dp688
g2
(dp689
g4
F0.6998213711330126
sg5
F0.16922826113007858
sg6
F0.30017862886698743
ssg7
g4
ssI343
(dp690
g2
(dp691
g4
F0.6554359583838147
sg5
F0.10319107346810384
sg6
F0.34456404161618526
ssg7
g4
ssI344
(dp692
g2
(dp693
g4
F0.5134881222448885
sg5
F0.864434545787034
sg6
F0.4865118777551115
ssg7
g5
ssI345
(dp694
g2
(dp695
g4
F0.35819753792749576
sg5
F0.4579713392798887
sg6
F0.6418024620725042
ssg7
g6
ssI346
(dp696
g2
(dp697
g4
F0.7742573988655315
sg5
F0.1442960163327028
sg6
F0.22574260113446848
ssg7
g4
ssI347
(dp698
g2
(dp699
g4
F0.48602565012959964
sg5
F0.14855600937815874
sg6
F0.5139743498704004
ssg7
g6
ssI348
(dp700
g2
(dp701
g4
F0.7246989015016452
sg5
F0.37464730875521873
sg6
F0.27530109849835477
ssg7
g4
ssI349
(dp702
g2
(dp703
g4
F0.5802931627586017
sg5
F0.23230247887861444
sg6
F0.4197068372413983
ssg7
g4
ssI350
(dp704
g2
(dp705
g4
F0.7983709786608151
sg5
F0.50790086847694
sg6
F0.20162902133918495
ssg7
g5
ssI351
(dp706
g2
(dp707
g4
F0.4571041775162714
sg5
F0.18518433694669365
sg6
F0.5428958224837286
ssg7
g6
ssI352
(dp708
g2
(dp709
g4
F0.804932059257242
sg5
F0.5585340366532711
sg6
F0.19506794074275807
ssg7
g5
ssI353
(dp710
g2
(dp711
g4
F0.6007731389870368
sg5
F0.3867110382416186
sg6
F0.39922686101296323
ssg7
g4
ssI354
(dp712
g2
(dp713
g4
F0.499369964366569
sg5
F0.2035357585990952
sg6
F0.500630035633431
ssg7
g6
ssI355
(dp714
g2
(dp715
g4
F0.46175378916087195
sg5
F0.1418453192841389
sg6
F0.538246210839128
ssg7
g6
ssI356
(dp716
g2
(dp717
g4
F0.45533850419354993
sg5
F0.18899225149627238
sg6
F0.5446614958064501
ssg7
g6
ssI357
(dp718
g2
(dp719
g4
F0.5743017538872555
sg5
F0.1437019197633047
sg6
F0.42569824611274454
ssg7
g4
ssI358
(dp720
g2
(dp721
g4
F0.702779720744565
sg5
F0.285093851024992
sg6
F0.29722027925543504
ssg7
g4
ssI359
(dp722
g2
(dp723
g4
F0.5586495622149447
sg5
F0.2721725732513522
sg6
F0.44135043778505534
ssg7
g4
ssI360
(dp724
g2
(dp725
g4
F0.4876022104212039
sg5
F0.4796251186091633
sg6
F0.5123977895787961
ssg7
g6
ssI361
(dp726
g2
(dp727
g4
F0.6925048395589144
sg5
F0.4433216694501228
sg6
F0.30749516044108566
ssg7
g4
ssI362
(dp728
g2
(dp729
g4
F0.6533784039683023
sg5
F0.1907009825578332
sg6
F0.34662159603169773
ssg7
g4
ssI363
(dp730
g2
(dp731
g4
F0.8613964610693925
sg5
F0.1325391818282098
sg6
F0.13860353893060745
ssg7
g4
ssI364
(dp732
g2
(dp733
g4
F0.5095519989067516
sg5
F0.5950890614040548
sg6
F0.4904480010932484
ssg7
g5
ssI365
(dp734
g2
(dp735
g4
F0.48886573492684726
sg5
F0.43448077471028007
sg6
F0.5111342650731527
ssg7
g6
ssI366
(dp736
g2
(dp737
g4
F0.48886573492684726
sg5
F0.43448077471028007
sg6
F0.5111342650731527
ssg7
g6
ssI367
(dp738
g2
(dp739
g4
F0.48815421443774887
sg5
F0.4604114589595761
sg6
F0.5118457855622511
ssg7
g6
ssI368
(dp740
g2
(dp741
g4
F0.7380424427839367
sg5
F0.19221050542839993
sg6
F0.26195755721606334
ssg7
g4
ssI369
(dp742
g2
(dp743
g4
F0.688383766699138
sg5
F0.17061028929933234
sg6
F0.31161623330086197
ssg7
g4
ssI370
(dp744
g2
(dp745
g4
F0.6599986600487149
sg5
F0.21635715223370003
sg6
F0.34000133995128506
ssg7
g4
ssI371
(dp746
g2
(dp747
g4
F0.2409170438794963
sg5
F0.4174528978166392
sg6
F0.7590829561205037
ssg7
g6
ssI372
(dp748
g2
(dp749
g4
F0.7995428062194915
sg5
F0.13111984956970976
sg6
F0.20045719378050855
ssg7
g4
ssI373
(dp750
g2
(dp751
g4
F0.5983266914190144
sg5
F0.34844777168924207
sg6
F0.4016733085809856
ssg7
g4
ssI374
(dp752
g2
(dp753
g4
F0.41161241875867416
sg5
F0.4055358817131984
sg6
F0.5883875812413258
ssg7
g6
ssI375
(dp754
g2
(dp755
g4
F0.716551628458933
sg5
F0.15522460208660227
sg6
F0.283448371541067
ssg7
g4
ssI376
(dp756
g2
(dp757
g4
F0.7211660140580675
sg5
F0.21524664532576746
sg6
F0.27883398594193254
ssg7
g4
ssI377
(dp758
g2
(dp759
g4
F0.5284268012405154
sg5
F0.5154913579173829
sg6
F0.47157319875948456
ssg7
g5
ssI378
(dp760
g2
(dp761
g4
F0.558215266360886
sg5
F0.7792564811536474
sg6
F0.44178473363911397
ssg7
g5
ssI379
(dp762
g2
(dp763
g4
F0.46646882172417425
sg5
F0.17481546757451658
sg6
F0.5335311782758257
ssg7
g6
ssI380
(dp764
g2
(dp765
g4
F0.5014401806003317
sg5
F0.3508017164063137
sg6
F0.49855981939966837
ssg7
g4
ssI381
(dp766
g2
(dp767
g4
F0.31165342301203847
sg5
F0.16487028012973684
sg6
F0.6883465769879615
ssg7
g6
ssI382
(dp768
g2
(dp769
g4
F0.491296379197374
sg5
F0.35126125731921753
sg6
F0.508703620802626
ssg7
g6
ssI383
(dp770
g2
(dp771
g4
F0.4178564256315529
sg5
F0.14731763506342038
sg6
F0.5821435743684471
ssg7
g6
ssI384
(dp772
g2
(dp773
g4
F0.5062816018808208
sg5
F0.3195052947344987
sg6
F0.49371839811917917
ssg7
g4
ssI385
(dp774
g2
(dp775
g4
F0.12547629889124756
sg5
F0.19012749325195696
sg6
F0.8745237011087524
ssg7
g6
ssI386
(dp776
g2
(dp777
g4
F0.48668890405433696
sg5
F0.15307251178651052
sg6
F0.513311095945663
ssg7
g6
ssI387
(dp778
g2
(dp779
g4
F0.6421900102952575
sg5
F0.19049244616734387
sg6
F0.35780998970474254
ssg7
g4
ssI388
(dp780
g2
(dp781
g4
F0.43322952385469604
sg5
F0.15845388849641773
sg6
F0.566770476145304
ssg7
g6
ssI389
(dp782
g2
(dp783
g4
F0.7937580206757121
sg5
F0.3710301465129981
sg6
F0.20624197932428792
ssg7
g4
ssI390
(dp784
g2
(dp785
g4
F0.7079656597077655
sg5
F0.49977824240510493
sg6
F0.2920343402922346
ssg7
g4
ssI391
(dp786
g2
(dp787
g4
F0.8349648771361534
sg5
F0.3438375291722773
sg6
F0.16503512286384658
ssg7
g4
ssI392
(dp788
g2
(dp789
g4
F0.5459323614142547
sg5
F0.20866687683337007
sg6
F0.4540676385857453
ssg7
g4
ssI393
(dp790
g2
(dp791
g4
F0.8642945779827742
sg5
F0.03823621767071639
sg6
F0.1357054220172258
ssg7
g4
ssI394
(dp792
g2
(dp793
g4
F0.4587150944668651
sg5
F0.35415030546380627
sg6
F0.5412849055331349
ssg7
g6
ssI395
(dp794
g2
(dp795
g4
F0.38999147243748233
sg5
F0.24676560068275402
sg6
F0.6100085275625177
ssg7
g6
ssI396
(dp796
g2
(dp797
g4
F0.4794631838896368
sg5
F0.48180490817921723
sg6
F0.5205368161103632
ssg7
g6
ssI397
(dp798
g2
(dp799
g4
F0.578328901227856
sg5
F0.17986451573155227
sg6
F0.42167109877214404
ssg7
g4
ssI398
(dp800
g2
(dp801
g4
F0.6071722513036183
sg5
F0.7826475478751224
sg6
F0.3928277486963817
ssg7
g5
ssI399
(dp802
g2
(dp803
g4
F0.48759068581375087
sg5
F0.20631754105906883
sg6
F0.5124093141862491
ssg7
g6
ssI400
(dp804
g2
(dp805
g4
F0.5788777453324596
sg5
F0.2202875833929815
sg6
F0.42112225466754044
ssg7
g4
ssI401
(dp806
g2
(dp807
g4
F0.46422518849408034
sg5
F0.21204080642713388
sg6
F0.5357748115059197
ssg7
g6
ssI402
(dp808
g2
(dp809
g4
F0.45687752440519325
sg5
F0.17876010459825167
sg6
F0.5431224755948068
ssg7
g6
ssI403
(dp810
g2
(dp811
g4
F0.7719976781634905
sg5
F0.011906645661292493
sg6
F0.22800232183650948
ssg7
g4
ssI404
(dp812
g2
(dp813
g4
F0.6550103087745619
sg5
F0.49330243301197996
sg6
F0.3449896912254381
ssg7
g4
ssI405
(dp814
g2
(dp815
g4
F0.6611595027894579
sg5
F0.1191462081945512
sg6
F0.33884049721054205
ssg7
g4
ssI406
(dp816
g2
(dp817
g4
F0.3582980262931257
sg5
F0.12578222811321252
sg6
F0.6417019737068743
ssg7
g6
ssI407
(dp818
g2
(dp819
g4
F0.5575640538602864
sg5
F0.1551382598542704
sg6
F0.4424359461397136
ssg7
g4
ssI408
(dp820
g2
(dp821
g4
F0.6280596757226061
sg5
F0.11853904014831702
sg6
F0.3719403242773939
ssg7
g4
ssI409
(dp822
g2
(dp823
g4
F0.520578706332422
sg5
F0.6183111832496408
sg6
F0.479421293667578
ssg7
g5
ssI410
(dp824
g2
(dp825
g4
F0.6467703549499515
sg5
F0.288193371923617
sg6
F0.35322964505004845
ssg7
g4
ssI411
(dp826
g2
(dp827
g4
F0.8149127704118261
sg5
F0.755462897167756
sg6
F0.18508722958817392
ssg7
g5
ssI412
(dp828
g2
(dp829
g4
F0.36944193823883564
sg5
F0.4812252846492004
sg6
F0.6305580617611644
ssg7
g6
ssI413
(dp830
g2
(dp831
g4
F0.5424644977551383
sg5
F0.8944913845231879
sg6
F0.4575355022448617
ssg7
g5
ssI414
(dp832
g2
(dp833
g4
F0.24209044402274982
sg5
F0.34119831772959747
sg6
F0.7579095559772502
ssg7
g6
ssI415
(dp834
g2
(dp835
g4
F0.5287093108580339
sg5
F0.16674579341218299
sg6
F0.47129068914196615
ssg7
g4
ssI416
(dp836
g2
(dp837
g4
F0.5515559565121193
sg5
F0.12249606775998406
sg6
F0.4484440434878807
ssg7
g4
ssI417
(dp838
g2
(dp839
g4
F0.6877025854137667
sg5
F0.20096992380116963
sg6
F0.3122974145862333
ssg7
g4
ssI418
(dp840
g2
(dp841
g4
F0.5397765087462724
sg5
F0.8027972795215913
sg6
F0.46022349125372763
ssg7
g5
ssI419
(dp842
g2
(dp843
g4
F0.7516447711376961
sg5
F0.19791104696928793
sg6
F0.24835522886230382
ssg7
g4
ssI420
(dp844
g2
(dp845
g4
F0.456661026006254
sg5
F0.6376102075977883
sg6
F0.543338973993746
ssg7
g5
ssI421
(dp846
g2
(dp847
g4
F0.3986917614006338
sg5
F0.35331896578257665
sg6
F0.6013082385993662
ssg7
g6
ssI422
(dp848
g2
(dp849
g4
F0.4939888140768167
sg5
F0.20415380519269852
sg6
F0.5060111859231833
ssg7
g6
ssI423
(dp850
g2
(dp851
g4
F0.7470281539709898
sg5
F0.29828024454894425
sg6
F0.25297184602901024
ssg7
g4
ssI424
(dp852
g2
(dp853
g4
F0.7377673917294854
sg5
F0.12382136478352163
sg6
F0.2622326082705146
ssg7
g4
ssI425
(dp854
g2
(dp855
g4
F0.5205111415642449
sg5
F0.9476361068296696
sg6
F0.479488858435755
ssg7
g5
ssI426
(dp856
g2
(dp857
g4
F0.5500625646750403
sg5
F0.12360374460615314
sg6
F0.4499374353249596
ssg7
g4
ssI427
(dp858
g2
(dp859
g4
F0.49212060193699947
sg5
F0.44949343301101446
sg6
F0.5078793980630005
ssg7
g6
ssI428
(dp860
g2
(dp861
g4
F0.4508146295995227
sg5
F0.5376726367396669
sg6
F0.5491853704004773
ssg7
g5
ssI429
(dp862
g2
(dp863
g4
F0.6033254840781559
sg5
F0.6760843590985761
sg6
F0.39667451592184405
ssg7
g5
ssI430
(dp864
g2
(dp865
g4
F0.3953168262950457
sg5
F0.5985590133458216
sg6
F0.6046831737049543
ssg7
g5
ssI431
(dp866
g2
(dp867
g4
F0.570637738701691
sg5
F0.33869964304221023
sg6
F0.429362261298309
ssg7
g4
ssI432
(dp868
g2
(dp869
g4
F0.4260260986940857
sg5
F0.34308145050543004
sg6
F0.5739739013059143
ssg7
g6
ssI433
(dp870
g2
(dp871
g4
F0.6813836868842534
sg5
F0.05111873294906641
sg6
F0.31861631311574656
ssg7
g4
ssI434
(dp872
g2
(dp873
g4
F0.6147165065405144
sg5
F0.1800365406566119
sg6
F0.38528349345948565
ssg7
g4
ssI435
(dp874
g2
(dp875
g4
F0.41358471841920985
sg5
F0.7726290101747355
sg6
F0.5864152815807901
ssg7
g5
ssI436
(dp876
g2
(dp877
g4
F0.4169386006770702
sg5
F0.2429594272621548
sg6
F0.5830613993229298
ssg7
g6
ssI437
(dp878
g2
(dp879
g4
F0.4671886834384482
sg5
F0.16441495708939788
sg6
F0.5328113165615518
ssg7
g6
ssI438
(dp880
g2
(dp881
g4
F0.4701636018435962
sg5
F0.03904096702955918
sg6
F0.5298363981564038
ssg7
g6
ssI439
(dp882
g2
(dp883
g4
F0.4706365220557631
sg5
F0.9291106186273018
sg6
F0.5293634779442369
ssg7
g5
ssI440
(dp884
g2
(dp885
g4
F0.7336547304175558
sg5
F0.4428605643731547
sg6
F0.2663452695824442
ssg7
g4
ssI441
(dp886
g2
(dp887
g4
F0.7290798124054468
sg5
F0.18567591895978885
sg6
F0.27092018759455316
ssg7
g4
ssI442
(dp888
g2
(dp889
g4
F0.5689452435555469
sg5
F0.2534791033540284
sg6
F0.4310547564444531
ssg7
g4
ssI443
(dp890
g2
(dp891
g4
F0.5911420381380819
sg5
F0.43169571384688005
sg6
F0.4088579618619182
ssg7
g4
ssI444
(dp892
g2
(dp893
g4
F0.5469723424155952
sg5
F0.47302032974988945
sg6
F0.4530276575844048
ssg7
g4
ssI445
(dp894
g2
(dp895
g4
F0.5173072162010031
sg5
F0.5748805790335013
sg6
F0.4826927837989969
ssg7
g5
ssI446
(dp896
g2
(dp897
g4
F0.7785041333051652
sg5
F0.2071635674851976
sg6
F0.22149586669483484
ssg7
g4
ssI447
(dp898
g2
(dp899
g4
F0.5352929092933636
sg5
F0.3716671221646272
sg6
F0.4647070907066364
ssg7
g4
ssI448
(dp900
g2
(dp901
g4
F0.511008866814008
sg5
F0.19717942839283706
sg6
F0.48899113318599197
ssg7
g4
ssI449
(dp902
g2
(dp903
g4
F0.5078483255313145
sg5
F0.09795012910707479
sg6
F0.49215167446868546
ssg7
g4
ssI450
(dp904
g2
(dp905
g4
F0.5983840061998011
sg5
F0.10972629776860347
sg6
F0.40161599380019886
ssg7
g4
ssI451
(dp906
g2
(dp907
g4
F0.6641187153816817
sg5
F0.7843563015789913
sg6
F0.3358812846183183
ssg7
g5
ssI452
(dp908
g2
(dp909
g4
F0.44171980532541644
sg5
F0.29037200099652066
sg6
F0.5582801946745836
ssg7
g6
ssI453
(dp910
g2
(dp911
g4
F0.6355220226195071
sg5
F0.2011115934890335
sg6
F0.3644779773804929
ssg7
g4
ssI454
(dp912
g2
(dp913
g4
F0.8219891331947868
sg5
F0.11619780505691335
sg6
F0.17801086680521316
ssg7
g4
ssI455
(dp914
g2
(dp915
g4
F0.47080175327598095
sg5
F0.2542911295095886
sg6
F0.529198246724019
ssg7
g6
ssI456
(dp916
g2
(dp917
g4
F0.5296560687122049
sg5
F0.3173055347981766
sg6
F0.4703439312877951
ssg7
g4
ssI457
(dp918
g2
(dp919
g4
F0.7684693432834958
sg5
F0.16425245906031224
sg6
F0.23153065671650422
ssg7
g4
ssI458
(dp920
g2
(dp921
g4
F0.6505528870614489
sg5
F0.40316983966333336
sg6
F0.34944711293855113
ssg7
g4
ssI459
(dp922
g2
(dp923
g4
F0.6095838927992383
sg5
F0.30404910371756283
sg6
F0.3904161072007617
ssg7
g4
ssI460
(dp924
g2
(dp925
g4
F0.5248498098822325
sg5
F0.15715911283401052
sg6
F0.47515019011776743
ssg7
g4
ssI461
(dp926
g2
(dp927
g4
F0.6907925263545576
sg5
F0.49448636753158803
sg6
F0.30920747364544243
ssg7
g4
ssI462
(dp928
g2
(dp929
g4
F0.5522720644259449
sg5
F0.3866303388886891
sg6
F0.44772793557405516
ssg7
g4
ssI463
(dp930
g2
(dp931
g4
F0.6255258576011833
sg5
F0.8032511716062825
sg6
F0.3744741423988167
ssg7
g5
ssI464
(dp932
g2
(dp933
g4
F0.7119146491339664
sg5
F0.5060530649251
sg6
F0.2880853508660336
ssg7
g5
ssI465
(dp934
g2
(dp935
g4
F0.5521822960423188
sg5
F0.23056789128640612
sg6
F0.44781770395768117
ssg7
g4
ssI466
(dp936
g2
(dp937
g4
F0.8344112106037336
sg5
F0.1567049779161617
sg6
F0.16558878939626637
ssg7
g4
ssI467
(dp938
g2
(dp939
g4
F0.3728865036433643
sg5
F0.4935875089817365
sg6
F0.6271134963566357
ssg7
g6
ssI468
(dp940
g2
(dp941
g4
F0.8353037536758736
sg5
F0.02608549608213476
sg6
F0.16469624632412644
ssg7
g4
ssI469
(dp942
g2
(dp943
g4
F0.6895685086999312
sg5
F0.20485841066389843
sg6
F0.31043149130006875
ssg7
g4
ssI470
(dp944
g2
(dp945
g4
F0.8679195819945249
sg5
F0.11779483406465015
sg6
F0.13208041800547504
ssg7
g4
ssI471
(dp946
g2
(dp947
g4
F0.7336547304175558
sg5
F0.4428605643731547
sg6
F0.2663452695824442
ssg7
g4
ssI472
(dp948
g2
(dp949
g4
F0.4773126492815085
sg5
F0.5646542649675662
sg6
F0.5226873507184915
ssg7
g5
ssI473
(dp950
g2
(dp951
g4
F0.5851160888881826
sg5
F0.286714770493338
sg6
F0.4148839111118175
ssg7
g4
ssI474
(dp952
g2
(dp953
g4
F0.8320889151014712
sg5
F0.22637117275661703
sg6
F0.1679110848985288
ssg7
g4
ssI475
(dp954
g2
(dp955
g4
F0.40883795112548404
sg5
F0.5839327148104242
sg6
F0.591162048874516
ssg7
g5
ssI476
(dp956
g2
(dp957
g4
F0.8615139188633496
sg5
F0.7522283621309801
sg6
F0.13848608113665042
ssg7
g5
ssI477
(dp958
g2
(dp959
g4
F0.6644298262195094
sg5
F0.8800281042116754
sg6
F0.33557017378049053
ssg7
g5
ssI478
(dp960
g2
(dp961
g4
F0.5270946677880783
sg5
F0.5671100886043606
sg6
F0.4729053322119217
ssg7
g5
ssI479
(dp962
g2
(dp963
g4
F0.5289025447204181
sg5
F0.6794986708276135
sg6
F0.47109745527958197
ssg7
g5
ssI480
(dp964
g2
(dp965
g4
F0.7076189503489281
sg5
F0.9439759057753411
sg6
F0.2923810496510719
ssg7
g5
ssI481
(dp966
g2
(dp967
g4
F0.5554347271120754
sg5
F0.03562460355925035
sg6
F0.4445652728879246
ssg7
g4
ssI482
(dp968
g2
(dp969
g4
F0.548406851644355
sg5
F0.846438356413365
sg6
F0.45159314835564496
ssg7
g5
ssI483
(dp970
g2
(dp971
g4
F0.6263766720709558
sg5
F0.8776680534800364
sg6
F0.3736233279290441
ssg7
g5
ssI484
(dp972
g2
(dp973
g4
F0.35690512662602214
sg5
F0.4956172748075238
sg6
F0.6430948733739779
ssg7
g6
ssI485
(dp974
g2
(dp975
g4
F0.7630090339924136
sg5
F0.27928171261278273
sg6
F0.2369909660075864
ssg7
g4
ssI486
(dp976
g2
(dp977
g4
F0.5946793747190295
sg5
F0.5080585722778101
sg6
F0.4053206252809704
ssg7
g5
ssI487
(dp978
g2
(dp979
g4
F0.38425515289445034
sg5
F0.4250138654795806
sg6
F0.6157448471055497
ssg7
g6
ssI488
(dp980
g2
(dp981
g4
F0.7361490316769475
sg5
F0.13170657079028758
sg6
F0.2638509683230526
ssg7
g4
ssI489
(dp982
g2
(dp983
g4
F0.4297177914543473
sg5
F0.5371419586485106
sg6
F0.5702822085456527
ssg7
g5
ssI490
(dp984
g2
(dp985
g4
F0.5517397623139515
sg5
F0.3435788777238278
sg6
F0.4482602376860485
ssg7
g4
ssI491
(dp986
g2
(dp987
g4
F0.5588241105094993
sg5
F0.7487274801843804
sg6
F0.44117588949050074
ssg7
g5
ssI492
(dp988
g2
(dp989
g4
F0.6458683796837578
sg5
F0.1076088851536563
sg6
F0.35413162031624223
ssg7
g4
ssI493
(dp990
g2
(dp991
g4
F0.5753003990388736
sg5
F0.15776210514529546
sg6
F0.4246996009611263
ssg7
g4
ssI494
(dp992
g2
(dp993
g4
F0.32555426160109247
sg5
F0.28536538098243863
sg6
F0.6744457383989075
ssg7
g6
ssI495
(dp994
g2
(dp995
g4
F0.22857107110770558
sg5
F0.19122816619556818
sg6
F0.7714289288922944
ssg7
g6
ssI496
(dp996
g2
(dp997
g4
F0.5576036720382781
sg5
F0.5950890614040548
sg6
F0.4423963279617219
ssg7
g5
ssI497
(dp998
g2
(dp999
g4
F0.4996484908187525
sg5
F0.4818049081792173
sg6
F0.5003515091812475
ssg7
g6
ssI498
(dp1000
g2
(dp1001
g4
F0.7136110842924928
sg5
F0.2514474536007891
sg6
F0.2863889157075073
ssg7
g4
ssI499
(dp1002
g2
(dp1003
g4
F0.6323042854007859
sg5
F0.24812651473366576
sg6
F0.3676957145992141
ssg7
g4
ssI500
(dp1004
g2
(dp1005
g4
F0.8014165658291361
sg5
F0.03861227814471347
sg6
F0.19858343417086385
ssg7
g4
ssI501
(dp1006
g2
(dp1007
g4
F0.4519680594331791
sg5
F0.4204022965942269
sg6
F0.5480319405668209
ssg7
g6
ssI502
(dp1008
g2
(dp1009
g4
F0.7291176288262748
sg5
F0.2732176771491846
sg6
F0.27088237117372516
ssg7
g4
ssI503
(dp1010
g2
(dp1011
g4
F0.8584767838013438
sg5
F0.14310585985114682
sg6
F0.1415232161986561
ssg7
g4
ssI504
(dp1012
g2
(dp1013
g4
F0.39831245382985625
sg5
F0.2246197360619957
sg6
F0.6016875461701437
ssg7
g6
ssI505
(dp1014
g2
(dp1015
g4
F0.31534319265710997
sg5
F0.5100617345215032
sg6
F0.68465680734289
ssg7
g5
ssI506
(dp1016
g2
(dp1017
g4
F0.5188478574136846
sg5
F0.37544120509932183
sg6
F0.4811521425863155
ssg7
g4
ssI507
(dp1018
g2
(dp1019
g4
F0.6256776141945252
sg5
F0.497455818933757
sg6
F0.37432238580547483
ssg7
g4
ssI508
(dp1020
g2
(dp1021
g4
F0.41205284983428414
sg5
F0.16822539305013373
sg6
F0.5879471501657159
ssg7
g6
ssI509
(dp1022
g2
(dp1023
g4
F0.8659882875019022
sg5
F0.1466898977935254
sg6
F0.13401171249809787
ssg7
g4
ssI510
(dp1024
g2
(dp1025
g4
F0.6639973961425902
sg5
F0.8027202548853611
sg6
F0.33600260385740977
ssg7
g5
ssI511
(dp1026
g2
(dp1027
g4
F0.580463307113533
sg5
F0.15257368522888112
sg6
F0.419536692886467
ssg7
g4
ssI512
(dp1028
g2
(dp1029
g4
F0.5628599057274245
sg5
F0.2496351969679175
sg6
F0.4371400942725755
ssg7
g4
ssI513
(dp1030
g2
(dp1031
g4
F0.4630024443619778
sg5
F0.38981475187147235
sg6
F0.5369975556380222
ssg7
g6
ssI514
(dp1032
g2
(dp1033
g4
F0.7828520485641746
sg5
F0.14103686609124977
sg6
F0.21714795143582544
ssg7
g4
ssI515
(dp1034
g2
(dp1035
g4
F0.43931979116744335
sg5
F0.36352627441389657
sg6
F0.5606802088325566
ssg7
g6
ssI516
(dp1036
g2
(dp1037
g4
F0.33224009971880997
sg5
F0.44052541925215466
sg6
F0.66775990028119
ssg7
g6
ssI517
(dp1038
g2
(dp1039
g4
F0.6813836868842534
sg5
F0.05111873294906641
sg6
F0.31861631311574656
ssg7
g4
ssI518
(dp1040
g2
(dp1041
g4
F0.4776683301492838
sg5
F0.36620454452609447
sg6
F0.5223316698507162
ssg7
g6
ssI519
(dp1042
g2
(dp1043
g4
F0.5185822595509029
sg5
F0.2421285276900442
sg6
F0.48141774044909713
ssg7
g4
ssI520
(dp1044
g2
(dp1045
g4
F0.6781021929623405
sg5
F0.5004567761968243
sg6
F0.32189780703765947
ssg7
g5
ssI521
(dp1046
g2
(dp1047
g4
F0.595816504490562
sg5
F0.0900167427733863
sg6
F0.404183495509438
ssg7
g4
ssI522
(dp1048
g2
(dp1049
g4
F0.6219844384701168
sg5
F0.0863374276507294
sg6
F0.37801556152988325
ssg7
g4
ssI523
(dp1050
g2
(dp1051
g4
F0.6260201743128948
sg5
F0.05826927058945298
sg6
F0.3739798256871052
ssg7
g4
ssI524
(dp1052
g2
(dp1053
g4
F0.5827548092015873
sg5
F0.15373175649203552
sg6
F0.41724519079841266
ssg7
g4
ssI525
(dp1054
g2
(dp1055
g4
F0.6713433885749724
sg5
F0.30805566604367857
sg6
F0.3286566114250276
ssg7
g4
ssI526
(dp1056
g2
(dp1057
g4
F0.734989864050843
sg5
F0.14378907741636782
sg6
F0.26501013594915707
ssg7
g4
ssI527
(dp1058
g2
(dp1059
g4
F0.47273779543348415
sg5
F0.18890801343559316
sg6
F0.5272622045665158
ssg7
g6
ssI528
(dp1060
g2
(dp1061
g4
F0.47666847378164545
sg5
F0.7697100720159158
sg6
F0.5233315262183545
ssg7
g5
ssI529
(dp1062
g2
(dp1063
g4
F0.7470272793753102
sg5
F0.3202083698482024
sg6
F0.2529727206246898
ssg7
g4
ssI530
(dp1064
g2
(dp1065
g4
F0.6515177318257555
sg5
F0.3434079212249837
sg6
F0.34848226817424455
ssg7
g4
ssI531
(dp1066
g2
(dp1067
g4
F0.6160931583725335
sg5
F0.770193305791803
sg6
F0.38390684162746647
ssg7
g5
ssI532
(dp1068
g2
(dp1069
g4
F0.791529910917531
sg5
F0.14793727414685245
sg6
F0.208470089082469
ssg7
g4
ssI533
(dp1070
g2
(dp1071
g4
F0.5298418069805235
sg5
F0.3411088575716787
sg6
F0.4701581930194765
ssg7
g4
ssI534
(dp1072
g2
(dp1073
g4
F0.44380763447472826
sg5
F0.501674877263761
sg6
F0.5561923655252717
ssg7
g5
ssI535
(dp1074
g2
(dp1075
g4
F0.3278737558774997
sg5
F0.17690678718592637
sg6
F0.6721262441225003
ssg7
g6
ssI536
(dp1076
g2
(dp1077
g4
F0.6354487564098481
sg5
F0.16339965682133503
sg6
F0.3645512435901519
ssg7
g4
ssI537
(dp1078
g2
(dp1079
g4
F0.6389867923768369
sg5
F0.044192330260529156
sg6
F0.3610132076231631
ssg7
g4
ssI538
(dp1080
g2
(dp1081
g4
F0.5453415147457057
sg5
F0.19390330624332006
sg6
F0.45465848525429425
ssg7
g4
ssI539
(dp1082
g2
(dp1083
g4
F0.5370517546332763
sg5
F0.40716566660859693
sg6
F0.4629482453667237
ssg7
g4
ssI540
(dp1084
g2
(dp1085
g4
F0.3571005359107593
sg5
F0.2014402861311659
sg6
F0.6428994640892407
ssg7
g6
ssI541
(dp1086
g2
(dp1087
g4
F0.6273710685944975
sg5
F0.785617778889729
sg6
F0.3726289314055025
ssg7
g5
ssI542
(dp1088
g2
(dp1089
g4
F0.6714606517862609
sg5
F0.6634737728343129
sg6
F0.3285393482137391
ssg7
g5
ssI543
(dp1090
g2
(dp1091
g4
F0.784059917615157
sg5
F0.3364709794040646
sg6
F0.21594008238484302
ssg7
g4
ssI544
(dp1092
g2
(dp1093
g4
F0.35614912314249314
sg5
F0.5932100706228433
sg6
F0.6438508768575069
ssg7
g5
ssI545
(dp1094
g2
(dp1095
g4
F0.7544280758117314
sg5
F0.09945459467892377
sg6
F0.2455719241882685
ssg7
g4
ssI546
(dp1096
g2
(dp1097
g4
F0.34503198543791036
sg5
F0.6098842586607601
sg6
F0.6549680145620896
ssg7
g5
ssI547
(dp1098
g2
(dp1099
g4
F0.6950470341383197
sg5
F0.42901950560901464
sg6
F0.3049529658616803
ssg7
g4
ssI548
(dp1100
g2
(dp1101
g4
F0.4422709197342387
sg5
F0.21626950217866173
sg6
F0.5577290802657613
ssg7
g6
ssI549
(dp1102
g2
(dp1103
g4
F0.7386145024999113
sg5
F0.22296326687425108
sg6
F0.2613854975000886
ssg7
g4
ssI550
(dp1104
g2
(dp1105
g4
F0.7806753240345164
sg5
F0.18045108573995572
sg6
F0.21932467596548355
ssg7
g4
ssI551
(dp1106
g2
(dp1107
g4
F0.49667377554179504
sg5
F0.1933971250784199
sg6
F0.503326224458205
ssg7
g6
ssI552
(dp1108
g2
(dp1109
g4
F0.6795661039221472
sg5
F0.8173575895579047
sg6
F0.3204338960778528
ssg7
g5
ssI553
(dp1110
g2
(dp1111
g4
F0.2550149048124535
sg5
F0.33629112441484615
sg6
F0.7449850951875465
ssg7
g6
ssI554
(dp1112
g2
(dp1113
g4
F0.5925615874214896
sg5
F0.6492104039666802
sg6
F0.4074384125785104
ssg7
g5
ssI555
(dp1114
g2
(dp1115
g4
F0.43981253075175575
sg5
F0.1826339988524183
sg6
F0.5601874692482443
ssg7
g6
ssI556
(dp1116
g2
(dp1117
g4
F0.35312332512386546
sg5
F0.28246125430204677
sg6
F0.6468766748761345
ssg7
g6
ssI557
(dp1118
g2
(dp1119
g4
F0.6199302332275928
sg5
F0.6664963558571287
sg6
F0.3800697667724072
ssg7
g5
ssI558
(dp1120
g2
(dp1121
g4
F0.612934450297822
sg5
F0.818794618484404
sg6
F0.387065549702178
ssg7
g5
ssI559
(dp1122
g2
(dp1123
g4
F0.4655513707919312
sg5
F0.1869445099759912
sg6
F0.5344486292080688
ssg7
g6
ssI560
(dp1124
g2
(dp1125
g4
F0.6715136521714806
sg5
F0.687517258558226
sg6
F0.3284863478285194
ssg7
g5
ssI561
(dp1126
g2
(dp1127
g4
F0.5845331387397431
sg5
F0.08181971681625315
sg6
F0.4154668612602569
ssg7
g4
ssI562
(dp1128
g2
(dp1129
g4
F0.5021874081754546
sg5
F0.16590400650532333
sg6
F0.4978125918245454
ssg7
g4
ssI563
(dp1130
g2
(dp1131
g4
F0.35669280822138716
sg5
F0.27334046734406225
sg6
F0.6433071917786128
ssg7
g6
ssI564
(dp1132
g2
(dp1133
g4
F0.5137139226751872
sg5
F0.401933857544203
sg6
F0.48628607732481277
ssg7
g4
ssI565
(dp1134
g2
(dp1135
g4
F0.6348151121993135
sg5
F0.15765128674556153
sg6
F0.3651848878006865
ssg7
g4
ssI566
(dp1136
g2
(dp1137
g4
F0.5826543010470986
sg5
F0.2238257795006772
sg6
F0.41734569895290147
ssg7
g4
ssI567
(dp1138
g2
(dp1139
g4
F0.596907189563771
sg5
F0.2861660568487214
sg6
F0.40309281043622897
ssg7
g4
ssI568
(dp1140
g2
(dp1141
g4
F0.4331768577230488
sg5
F0.21508046237783443
sg6
F0.5668231422769512
ssg7
g6
ssI569
(dp1142
g2
(dp1143
g4
F0.4417466047147889
sg5
F0.5824204465274461
sg6
F0.5582533952852111
ssg7
g5
ssI570
(dp1144
g2
(dp1145
g4
F0.5095519989067516
sg5
F0.5950890614040548
sg6
F0.4904480010932484
ssg7
g5
ssI571
(dp1146
g2
(dp1147
g4
F0.6724088949480533
sg5
F0.11666229357993901
sg6
F0.3275911050519467
ssg7
g4
ssI572
(dp1148
g2
(dp1149
g4
F0.8859797520605891
sg5
F0.04636381608715176
sg6
F0.11402024793941086
ssg7
g4
ssI573
(dp1150
g2
(dp1151
g4
F0.747113094803676
sg5
F0.3940254466722409
sg6
F0.25288690519632395
ssg7
g4
ssI574
(dp1152
g2
(dp1153
g4
F0.6633222845075217
sg5
F0.15970598919243653
sg6
F0.3366777154924782
ssg7
g4
ssI575
(dp1154
g2
(dp1155
g4
F0.48132085006555325
sg5
F0.7946036294551662
sg6
F0.5186791499344467
ssg7
g5
ssI576
(dp1156
g2
(dp1157
g4
F0.5059718356969766
sg5
F0.43000255366384366
sg6
F0.49402816430302343
ssg7
g4
ssI577
(dp1158
g2
(dp1159
g4
F0.6198639443408774
sg5
F0.5287135390109908
sg6
F0.38013605565912256
ssg7
g5
ssI578
(dp1160
g2
(dp1161
g4
F0.618898237479615
sg5
F0.8021741447047831
sg6
F0.3811017625203849
ssg7
g5
ssI579
(dp1162
g2
(dp1163
g4
F0.5312723094175583
sg5
F0.2744432836317154
sg6
F0.4687276905824417
ssg7
g4
ssI580
(dp1164
g2
(dp1165
g4
F0.7776511877093095
sg5
F0.0645261143490425
sg6
F0.22234881229069053
ssg7
g4
ssI581
(dp1166
g2
(dp1167
g4
F0.5656057200429275
sg5
F0.17293654673029177
sg6
F0.43439427995707247
ssg7
g4
ssI582
(dp1168
g2
(dp1169
g4
F0.41259615234366487
sg5
F0.7238603649244207
sg6
F0.5874038476563351
ssg7
g5
ssI583
(dp1170
g2
(dp1171
g4
F0.6031561462061703
sg5
F0.18838147248533968
sg6
F0.39684385379382964
ssg7
g4
ssI584
(dp1172
g2
(dp1173
g4
F0.7191584019032595
sg5
F0.3297644709752617
sg6
F0.2808415980967404
ssg7
g4
ssI585
(dp1174
g2
(dp1175
g4
F0.48569903161895966
sg5
F0.8233901549981528
sg6
F0.5143009683810403
ssg7
g5
ssI586
(dp1176
g2
(dp1177
g4
F0.5748185718350912
sg5
F0.11803335720855286
sg6
F0.4251814281649088
ssg7
g4
ssI587
(dp1178
g2
(dp1179
g4
F0.5223584683489777
sg5
F0.5474693475002524
sg6
F0.47764153165102236
ssg7
g5
ssI588
(dp1180
g2
(dp1181
g4
F0.5666337578011085
sg5
F0.02580823976317352
sg6
F0.43336624219889147
ssg7
g4
ssI589
(dp1182
g2
(dp1183
g4
F0.5451989256649706
sg5
F0.5822551389963183
sg6
F0.45480107433502936
ssg7
g5
ssI590
(dp1184
g2
(dp1185
g4
F0.6930142859591382
sg5
F0.09621224640842267
sg6
F0.3069857140408618
ssg7
g4
ssI591
(dp1186
g2
(dp1187
g4
F0.5428072839931465
sg5
F0.3694930424162206
sg6
F0.4571927160068535
ssg7
g4
ssI592
(dp1188
g2
(dp1189
g4
F0.8412220994324358
sg5
F0.3114564880409748
sg6
F0.15877790056756427
ssg7
g4
ssI593
(dp1190
g2
(dp1191
g4
F0.5542206316908119
sg5
F0.1892602035981058
sg6
F0.4457793683091881
ssg7
g4
ssI594
(dp1192
g2
(dp1193
g4
F0.5776294856340685
sg5
F0.3871894678605812
sg6
F0.4223705143659316
ssg7
g4
ssI595
(dp1194
g2
(dp1195
g4
F0.6512048304020669
sg5
F0.8792184252790274
sg6
F0.3487951695979331
ssg7
g5
ssI596
(dp1196
g2
(dp1197
g4
F0.5491668098153101
sg5
F0.7913469827320062
sg6
F0.4508331901846899
ssg7
g5
ssI597
(dp1198
g2
(dp1199
g4
F0.4551013726223928
sg5
F0.5252869600681681
sg6
F0.5448986273776072
ssg7
g5
ssI598
(dp1200
g2
(dp1201
g4
F0.6490340122295193
sg5
F0.10655183069838176
sg6
F0.3509659877704807
ssg7
g4
ssI599
(dp1202
g2
(dp1203
g4
F0.4209362408188697
sg5
F0.017474538956523268
sg6
F0.5790637591811303
ssg7
g6
ssI600
(dp1204
g2
(dp1205
g4
F0.6551262149447497
sg5
F0.2219215348783301
sg6
F0.3448737850552504
ssg7
g4
ssI601
(dp1206
g2
(dp1207
g4
F0.6794199815790343
sg5
F0.6675087639510909
sg6
F0.32058001842096573
ssg7
g5
ssI602
(dp1208
g2
(dp1209
g4
F0.7257917265990856
sg5
F0.7244929944611496
sg6
F0.27420827340091436
ssg7
g5
ssI603
(dp1210
g2
(dp1211
g4
F0.5208014081513208
sg5
F0.4405162060690098
sg6
F0.47919859184867913
ssg7
g4
ssI604
(dp1212
g2
(dp1213
g4
F0.41324934171992833
sg5
F0.2139573249864709
sg6
F0.5867506582800717
ssg7
g6
ssI605
(dp1214
g2
(dp1215
g4
F0.4169838899612006
sg5
F0.5301629021207691
sg6
F0.5830161100387994
ssg7
g5
ssI606
(dp1216
g2
(dp1217
g4
F0.5653513122659302
sg5
F0.3516731649353117
sg6
F0.4346486877340698
ssg7
g4
ssI607
(dp1218
g2
(dp1219
g4
F0.48421979541998295
sg5
F0.18157321255049919
sg6
F0.515780204580017
ssg7
g6
ssI608
(dp1220
g2
(dp1221
g4
F0.5469546946688404
sg5
F0.13170531099182148
sg6
F0.45304530533115955
ssg7
g4
ssI609
(dp1222
g2
(dp1223
g4
F0.6396700817013156
sg5
F0.08048243501435835
sg6
F0.36032991829868444
ssg7
g4
ssI610
(dp1224
g2
(dp1225
g4
F0.6502594282901262
sg5
F0.17607951260531904
sg6
F0.34974057170987377
ssg7
g4
ssI611
(dp1226
g2
(dp1227
g4
F0.4303104965504314
sg5
F0.4746861025809322
sg6
F0.5696895034495686
ssg7
g6
ssI612
(dp1228
g2
(dp1229
g4
F0.4859336516681627
sg5
F0.6210990850421902
sg6
F0.5140663483318373
ssg7
g5
ssI613
(dp1230
g2
(dp1231
g4
F0.64990682779745
sg5
F0.2180707917267665
sg6
F0.35009317220254993
ssg7
g4
ssI614
(dp1232
g2
(dp1233
g4
F0.4937290602787945
sg5
F0.14939318616065897
sg6
F0.5062709397212055
ssg7
g6
ssI615
(dp1234
g2
(dp1235
g4
F0.35245423643471796
sg5
F0.1910061045180661
sg6
F0.647545763565282
ssg7
g6
ssI616
(dp1236
g2
(dp1237
g4
F0.8792039666424308
sg5
F0.02618056873501202
sg6
F0.12079603335756915
ssg7
g4
ssI617
(dp1238
g2
(dp1239
g4
F0.41849565312534176
sg5
F0.06467561217206978
sg6
F0.5815043468746582
ssg7
g6
ssI618
(dp1240
g2
(dp1241
g4
F0.34874006099512744
sg5
F0.09392507670874017
sg6
F0.6512599390048726
ssg7
g6
ssI619
(dp1242
g2
(dp1243
g4
F0.5830628581776744
sg5
F0.5815765332060251
sg6
F0.4169371418223256
ssg7
g5
ssI620
(dp1244
g2
(dp1245
g4
F0.5073785384901666
sg5
F0.13978530939187359
sg6
F0.4926214615098334
ssg7
g4
ssI621
(dp1246
g2
(dp1247
g4
F0.5689156205960445
sg5
F0.08724990477028183
sg6
F0.4310843794039555
ssg7
g4
ssI622
(dp1248
g2
(dp1249
g4
F0.561778678138027
sg5
F0.3525671059375166
sg6
F0.4382213218619731
ssg7
g4
ssI623
(dp1250
g2
(dp1251
g4
F0.4694802578353957
sg5
F0.3975995089839908
sg6
F0.5305197421646043
ssg7
g6
ssI624
(dp1252
g2
(dp1253
g4
F0.6227915150903323
sg5
F0.21967412815524812
sg6
F0.3772084849096677
ssg7
g4
ssI625
(dp1254
g2
(dp1255
g4
F0.3612392133453587
sg5
F0.7203037043685638
sg6
F0.6387607866546413
ssg7
g5
ssI626
(dp1256
g2
(dp1257
g4
F0.6112162623877384
sg5
F0.11045055133194004
sg6
F0.3887837376122616
ssg7
g4
ssI627
(dp1258
g2
(dp1259
g4
F0.7336547304175558
sg5
F0.4428605643731547
sg6
F0.2663452695824442
ssg7
g4
ssI628
(dp1260
g2
(dp1261
g4
F0.418390485399861
sg5
F0.5700668792769289
sg6
F0.581609514600139
ssg7
g5
ssI629
(dp1262
g2
(dp1263
g4
F0.6783714909013563
sg5
F0.3979712796632813
sg6
F0.32162850909864377
ssg7
g4
ssI630
(dp1264
g2
(dp1265
g4
F0.4808007748791473
sg5
F0.5963339382149976
sg6
F0.5191992251208527
ssg7
g5
ssI631
(dp1266
g2
(dp1267
g4
F0.8080272693028586
sg5
F0.09638307745911394
sg6
F0.1919727306971414
ssg7
g4
ssI632
(dp1268
g2
(dp1269
g4
F0.43760478093593635
sg5
F0.21056096759537657
sg6
F0.5623952190640636
ssg7
g6
ssI633
(dp1270
g2
(dp1271
g4
F0.7674027398551928
sg5
F0.20018118264342358
sg6
F0.23259726014480714
ssg7
g4
ssI634
(dp1272
g2
(dp1273
g4
F0.3921498281287251
sg5
F0.3972316086959056
sg6
F0.6078501718712749
ssg7
g6
ssI635
(dp1274
g2
(dp1275
g4
F0.3442106318134951
sg5
F0.7343453353239435
sg6
F0.6557893681865049
ssg7
g5
ssI636
(dp1276
g2
(dp1277
g4
F0.5101249044548795
sg5
F0.5592264170946909
sg6
F0.48987509554512054
ssg7
g5
ssI637
(dp1278
g2
(dp1279
g4
F0.5771764477299834
sg5
F0.18901276296271
sg6
F0.4228235522700165
ssg7
g4
ssI638
(dp1280
g2
(dp1281
g4
F0.5790388020865078
sg5
F0.1945207265873442
sg6
F0.4209611979134922
ssg7
g4
ssI639
(dp1282
g2
(dp1283
g4
F0.4666778054111933
sg5
F0.24170612790301824
sg6
F0.5333221945888067
ssg7
g6
ssI640
(dp1284
g2
(dp1285
g4
F0.573777725940649
sg5
F0.3939048193953299
sg6
F0.426222274059351
ssg7
g4
ssI641
(dp1286
g2
(dp1287
g4
F0.5535256166289553
sg5
F0.6235251659603535
sg6
F0.44647438337104467
ssg7
g5
ssI642
(dp1288
g2
(dp1289
g4
F0.6421678417593413
sg5
F0.3524209610872415
sg6
F0.3578321582406588
ssg7
g4
ssI643
(dp1290
g2
(dp1291
g4
F0.4011788442010893
sg5
F0.5073517620553228
sg6
F0.5988211557989107
ssg7
g5
ssI644
(dp1292
g2
(dp1293
g4
F0.517852209590036
sg5
F0.5950890614040548
sg6
F0.482147790409964
ssg7
g5
ssI645
(dp1294
g2
(dp1295
g4
F0.545494580925528
sg5
F0.3923957188649972
sg6
F0.4545054190744719
ssg7
g4
ssI646
(dp1296
g2
(dp1297
g4
F0.8367895352601783
sg5
F0.15559253195662018
sg6
F0.16321046473982168
ssg7
g4
ssI647
(dp1298
g2
(dp1299
g4
F0.538197036822399
sg5
F0.925475088313739
sg6
F0.46180296317760094
ssg7
g5
ssI648
(dp1300
g2
(dp1301
g4
F0.6654942348317732
sg5
F0.16062778179447165
sg6
F0.33450576516822683
ssg7
g4
ssI649
(dp1302
g2
(dp1303
g4
F0.6004949020840984
sg5
F0.8258720054757797
sg6
F0.3995050979159016
ssg7
g5
ssI650
(dp1304
g2
(dp1305
g4
F0.5664411564271545
sg5
F0.6768048257491698
sg6
F0.4335588435728455
ssg7
g5
ssI651
(dp1306
g2
(dp1307
g4
F0.6863714418963979
sg5
F0.9019543678109381
sg6
F0.31362855810360213
ssg7
g5
ssI652
(dp1308
g2
(dp1309
g4
F0.294625922457307
sg5
F0.6909981002545722
sg6
F0.705374077542693
ssg7
g5
ssI653
(dp1310
g2
(dp1311
g4
F0.5708720127302314
sg5
F0.353131145222157
sg6
F0.42912798726976864
ssg7
g4
ssI654
(dp1312
g2
(dp1313
g4
F0.6701419467067147
sg5
F0.17997838556311538
sg6
F0.3298580532932853
ssg7
g4
ssI655
(dp1314
g2
(dp1315
g4
F0.5760596691174198
sg5
F0.2050389412622111
sg6
F0.42394033088258026
ssg7
g4
ssI656
(dp1316
g2
(dp1317
g4
F0.6738882800929173
sg5
F0.40171219790610563
sg6
F0.32611171990708265
ssg7
g4
ssI657
(dp1318
g2
(dp1319
g4
F0.6210889702072007
sg5
F0.07944564427331412
sg6
F0.37891102979279934
ssg7
g4
ssI658
(dp1320
g2
(dp1321
g4
F0.6546041554243472
sg5
F0.5253701490816621
sg6
F0.34539584457565276
ssg7
g5
ssI659
(dp1322
g2
(dp1323
g4
F0.7130218672480004
sg5
F0.23478813060845719
sg6
F0.28697813275199957
ssg7
g4
ssI660
(dp1324
g2
(dp1325
g4
F0.45459474010512957
sg5
F0.10970717197047129
sg6
F0.5454052598948704
ssg7
g6
ssI661
(dp1326
g2
(dp1327
g4
F0.48616977416165685
sg5
F0.0956414650442362
sg6
F0.5138302258383431
ssg7
g6
ssI662
(dp1328
g2
(dp1329
g4
F0.561100486426888
sg5
F0.10232255722185014
sg6
F0.43889951357311197
ssg7
g4
ssI663
(dp1330
g2
(dp1331
g4
F0.5554031958870924
sg5
F0.6060891571858228
sg6
F0.4445968041129076
ssg7
g5
ssI664
(dp1332
g2
(dp1333
g4
F0.7786201313752403
sg5
F0.09030501035988592
sg6
F0.22137986862475967
ssg7
g4
ssI665
(dp1334
g2
(dp1335
g4
F0.5574755444609755
sg5
F0.16677989885449196
sg6
F0.44252445553902453
ssg7
g4
ssI666
(dp1336
g2
(dp1337
g4
F0.7492763132728029
sg5
F0.2844687752597889
sg6
F0.25072368672719714
ssg7
g4
ssI667
(dp1338
g2
(dp1339
g4
F0.4288506460963487
sg5
F0.1422918533510327
sg6
F0.5711493539036513
ssg7
g6
ssI668
(dp1340
g2
(dp1341
g4
F0.3673246007146147
sg5
F0.18827543308915481
sg6
F0.6326753992853853
ssg7
g6
ssI669
(dp1342
g2
(dp1343
g4
F0.6530244072709492
sg5
F0.02221970981143065
sg6
F0.3469755927290507
ssg7
g4
ssI670
(dp1344
g2
(dp1345
g4
F0.5025969859659875
sg5
F0.39882603531193594
sg6
F0.49740301403401255
ssg7
g4
ssI671
(dp1346
g2
(dp1347
g4
F0.5161633644912809
sg5
F0.49954295603720117
sg6
F0.48383663550871914
ssg7
g4
ssI672
(dp1348
g2
(dp1349
g4
F0.621333503025648
sg5
F0.0767392168520134
sg6
F0.37866649697435195
ssg7
g4
ssI673
(dp1350
g2
(dp1351
g4
F0.5944739866584672
sg5
F0.09232613477058432
sg6
F0.4055260133415328
ssg7
g4
ssI674
(dp1352
g2
(dp1353
g4
F0.6202272223112597
sg5
F0.21975080299784555
sg6
F0.37977277768874035
ssg7
g4
ssI675
(dp1354
g2
(dp1355
g4
F0.5636379916886447
sg5
F0.4213020978604452
sg6
F0.43636200831135524
ssg7
g4
ssI676
(dp1356
g2
(dp1357
g4
F0.42050805145276293
sg5
F0.9434961489207726
sg6
F0.5794919485472371
ssg7
g5
ssI677
(dp1358
g2
(dp1359
g4
F0.2799403911751458
sg5
F0.41450753348363484
sg6
F0.7200596088248542
ssg7
g6
ssI678
(dp1360
g2
(dp1361
g4
F0.6403200269503835
sg5
F0.4222664230855693
sg6
F0.3596799730496165
ssg7
g4
ssI679
(dp1362
g2
(dp1363
g4
F0.5329731705029732
sg5
F0.20006624904183734
sg6
F0.46702682949702684
ssg7
g4
ssI680
(dp1364
g2
(dp1365
g4
F0.7323780150027326
sg5
F0.20688888467693115
sg6
F0.2676219849972674
ssg7
g4
ssI681
(dp1366
g2
(dp1367
g4
F0.43303772226910797
sg5
F0.4549145252935029
sg6
F0.566962277730892
ssg7
g6
ssI682
(dp1368
g2
(dp1369
g4
F0.6348434250349929
sg5
F0.16378292646126516
sg6
F0.3651565749650071
ssg7
g4
ssI683
(dp1370
g2
(dp1371
g4
F0.5266931903343879
sg5
F0.13875956581518753
sg6
F0.47330680966561206
ssg7
g4
ssI684
(dp1372
g2
(dp1373
g4
F0.6238240834901914
sg5
F0.18331009180225108
sg6
F0.3761759165098087
ssg7
g4
ssI685
(dp1374
g2
(dp1375
g4
F0.46866697007610447
sg5
F0.2336481552990257
sg6
F0.5313330299238955
ssg7
g6
ssI686
(dp1376
g2
(dp1377
g4
F0.6325077830215817
sg5
F0.6533201363608943
sg6
F0.3674922169784183
ssg7
g5
ssI687
(dp1378
g2
(dp1379
g4
F0.4032341603005265
sg5
F0.3500478617870561
sg6
F0.5967658396994735
ssg7
g6
ssI688
(dp1380
g2
(dp1381
g4
F0.6467372098497605
sg5
F0.45766771326047834
sg6
F0.35326279015023954
ssg7
g4
ssI689
(dp1382
g2
(dp1383
g4
F0.5153832783152634
sg5
F0.12864742294595377
sg6
F0.4846167216847366
ssg7
g4
ssI690
(dp1384
g2
(dp1385
g4
F0.5559764145285204
sg5
F0.1847330047081451
sg6
F0.44402358547147963
ssg7
g4
ssI691
(dp1386
g2
(dp1387
g4
F0.4687659933378947
sg5
F0.37106333027996125
sg6
F0.5312340066621053
ssg7
g6
ssI692
(dp1388
g2
(dp1389
g4
F0.4484647520197955
sg5
F0.03571814615967411
sg6
F0.5515352479802045
ssg7
g6
ssI693
(dp1390
g2
(dp1391
g4
F0.566813759264237
sg5
F0.21145804919256017
sg6
F0.433186240735763
ssg7
g4
ssI694
(dp1392
g2
(dp1393
g4
F0.9148116736201305
sg5
F0.05964518304763059
sg6
F0.08518832637986948
ssg7
g4
ssI695
(dp1394
g2
(dp1395
g4
F0.6242343663310499
sg5
F0.30705598585750143
sg6
F0.3757656336689501
ssg7
g4
ssI696
(dp1396
g2
(dp1397
g4
F0.6149917632409649
sg5
F0.2399421108864455
sg6
F0.385008236759035
ssg7
g4
ssI697
(dp1398
g2
(dp1399
g4
F0.505389602399935
sg5
F0.4159068027995538
sg6
F0.494610397600065
ssg7
g4
ssI698
(dp1400
g2
(dp1401
g4
F0.4952365033734125
sg5
F0.13805482820078085
sg6
F0.5047634966265875
ssg7
g6
ssI699
(dp1402
g2
(dp1403
g4
F0.5750157705216657
sg5
F0.16427350658947548
sg6
F0.42498422947833425
ssg7
g4
ssI700
(dp1404
g2
(dp1405
g4
F0.5214926386951078
sg5
F0.17011942189634066
sg6
F0.47850736130489224
ssg7
g4
ssI701
(dp1406
g2
(dp1407
g4
F0.6115726989877963
sg5
F0.7706658328963062
sg6
F0.3884273010122037
ssg7
g5
ssI702
(dp1408
g2
(dp1409
g4
F0.8416520660066166
sg5
F0.12323789101631526
sg6
F0.15834793399338343
ssg7
g4
ssI703
(dp1410
g2
(dp1411
g4
F0.34124653526879234
sg5
F0.469842019612678
sg6
F0.6587534647312077
ssg7
g6
ssI704
(dp1412
g2
(dp1413
g4
F0.7557375637550394
sg5
F0.19238461804974086
sg6
F0.24426243624496058
ssg7
g4
ssI705
(dp1414
g2
(dp1415
g4
F0.7452390321446871
sg5
F0.09866466020554193
sg6
F0.2547609678553129
ssg7
g4
ssI706
(dp1416
g2
(dp1417
g4
F0.5175961689010025
sg5
F0.294649726854132
sg6
F0.4824038310989975
ssg7
g4
ssI707
(dp1418
g2
(dp1419
g4
F0.6722144506660875
sg5
F0.7256039178018744
sg6
F0.32778554933391246
ssg7
g5
ssI708
(dp1420
g2
(dp1421
g4
F0.46833979120811486
sg5
F0.44365727598231935
sg6
F0.5316602087918851
ssg7
g6
ssI709
(dp1422
g2
(dp1423
g4
F0.5006808029244524
sg5
F0.4864222134852074
sg6
F0.4993191970755476
ssg7
g4
ssI710
(dp1424
g2
(dp1425
g4
F0.6580958086113979
sg5
F0.5071204792972379
sg6
F0.34190419138860206
ssg7
g5
ssI711
(dp1426
g2
(dp1427
g4
F0.6470616790733333
sg5
F0.3650762962450879
sg6
F0.35293832092666666
ssg7
g4
ssI712
(dp1428
g2
(dp1429
g4
F0.4072107897723274
sg5
F0.5827793482191506
sg6
F0.5927892102276726
ssg7
g5
ssI713
(dp1430
g2
(dp1431
g4
F0.43719038619548334
sg5
F0.6337620667694931
sg6
F0.5628096138045167
ssg7
g5
ssI714
(dp1432
g2
(dp1433
g4
F0.39279209767756473
sg5
F0.3110349917075772
sg6
F0.6072079023224353
ssg7
g6
ssI715
(dp1434
g2
(dp1435
g4
F0.7464399571090023
sg5
F0.177583957105506
sg6
F0.2535600428909977
ssg7
g4
ssI716
(dp1436
g2
(dp1437
g4
F0.5064053740471101
sg5
F0.018296515648844765
sg6
F0.49359462595288994
ssg7
g4
ssI717
(dp1438
g2
(dp1439
g4
F0.24209044402274982
sg5
F0.34119831772959747
sg6
F0.7579095559772502
ssg7
g6
ssI718
(dp1440
g2
(dp1441
g4
F0.44622928325037103
sg5
F0.3671668635166016
sg6
F0.553770716749629
ssg7
g6
ssI719
(dp1442
g2
(dp1443
g4
F0.7522047994283931
sg5
F0.6781448164775421
sg6
F0.24779520057160687
ssg7
g5
ssI720
(dp1444
g2
(dp1445
g4
F0.5152254856717682
sg5
F0.5774164708020024
sg6
F0.4847745143282318
ssg7
g5
ssI721
(dp1446
g2
(dp1447
g4
F0.4966621617454793
sg5
F0.2521096383901454
sg6
F0.5033378382545207
ssg7
g6
ssI722
(dp1448
g2
(dp1449
g4
F0.6879079515739255
sg5
F0.39303679167750705
sg6
F0.3120920484260745
ssg7
g4
ssI723
(dp1450
g2
(dp1451
g4
F0.6669792666332877
sg5
F0.4233337171018546
sg6
F0.3330207333667123
ssg7
g4
ssI724
(dp1452
g2
(dp1453
g4
F0.5425522800076212
sg5
F0.1306540034113264
sg6
F0.45744771999237877
ssg7
g4
ssI725
(dp1454
g2
(dp1455
g4
F0.5273024617582316
sg5
F0.39605596996966846
sg6
F0.47269753824176847
ssg7
g4
ssI726
(dp1456
g2
(dp1457
g4
F0.5524147399098107
sg5
F0.7798218149037548
sg6
F0.44758526009018923
ssg7
g5
ssI727
(dp1458
g2
(dp1459
g4
F0.6598735241927809
sg5
F0.15749455281978014
sg6
F0.3401264758072191
ssg7
g4
ssI728
(dp1460
g2
(dp1461
g4
F0.4553521356775967
sg5
F0.1926017234374958
sg6
F0.5446478643224033
ssg7
g6
ssI729
(dp1462
g2
(dp1463
g4
F0.5426773243586047
sg5
F0.3853235949405576
sg6
F0.4573226756413952
ssg7
g4
ssI730
(dp1464
g2
(dp1465
g4
F0.6718401334996457
sg5
F0.22649499069240794
sg6
F0.32815986650035434
ssg7
g4
ssI731
(dp1466
g2
(dp1467
g4
F0.25678361826182106
sg5
F0.059157306338954885
sg6
F0.7432163817381789
ssg7
g6
ssI732
(dp1468
g2
(dp1469
g4
F0.5549149410311347
sg5
F0.031182873032308905
sg6
F0.4450850589688653
ssg7
g4
ssI733
(dp1470
g2
(dp1471
g4
F0.6118451129714094
sg5
F0.06704025632140245
sg6
F0.3881548870285906
ssg7
g4
ssI734
(dp1472
g2
(dp1473
g4
F0.47740211313883085
sg5
F0.24385383255033213
sg6
F0.5225978868611691
ssg7
g6
ssI735
(dp1474
g2
(dp1475
g4
F0.39874496115979263
sg5
F0.15805536875958356
sg6
F0.6012550388402074
ssg7
g6
ssI736
(dp1476
g2
(dp1477
g4
F0.7190559135810135
sg5
F0.9630404948446523
sg6
F0.28094408641898644
ssg7
g5
ssI737
(dp1478
g2
(dp1479
g4
F0.4035979963243477
sg5
F0.4170195888387009
sg6
F0.5964020036756523
ssg7
g6
ssI738
(dp1480
g2
(dp1481
g4
F0.8172026350004458
sg5
F0.13161305472088577
sg6
F0.18279736499955423
ssg7
g4
ssI739
(dp1482
g2
(dp1483
g4
F0.45444996454660536
sg5
F0.3534554941006665
sg6
F0.5455500354533946
ssg7
g6
ssI740
(dp1484
g2
(dp1485
g4
F0.36169366998530394
sg5
F0.49462080027689653
sg6
F0.638306330014696
ssg7
g6
ssI741
(dp1486
g2
(dp1487
g4
F0.6853896061919855
sg5
F0.20158265940821873
sg6
F0.3146103938080145
ssg7
g4
ssI742
(dp1488
g2
(dp1489
g4
F0.563555403095356
sg5
F0.33907692809355633
sg6
F0.43644459690464393
ssg7
g4
ssI743
(dp1490
g2
(dp1491
g4
F0.6117189514995476
sg5
F0.3747161008181518
sg6
F0.3882810485004524
ssg7
g4
ssI744
(dp1492
g2
(dp1493
g4
F0.4777764286129149
sg5
F0.13664330432059446
sg6
F0.5222235713870851
ssg7
g6
ssI745
(dp1494
g2
(dp1495
g4
F0.6490906575924903
sg5
F0.7204665154521077
sg6
F0.3509093424075097
ssg7
g5
ssI746
(dp1496
g2
(dp1497
g4
F0.5386237587982532
sg5
F0.2987665164428784
sg6
F0.46137624120174675
ssg7
g4
ssI747
(dp1498
g2
(dp1499
g4
F0.438095652561706
sg5
F0.17148285052495985
sg6
F0.561904347438294
ssg7
g6
ssI748
(dp1500
g2
(dp1501
g4
F0.321094776946351
sg5
F0.7624028146785805
sg6
F0.678905223053649
ssg7
g5
ssI749
(dp1502
g2
(dp1503
g4
F0.536652879505831
sg5
F0.39393428765348565
sg6
F0.46334712049416904
ssg7
g4
ssI750
(dp1504
g2
(dp1505
g4
F0.30248037768960523
sg5
F0.22546776231831026
sg6
F0.6975196223103948
ssg7
g6
ssI751
(dp1506
g2
(dp1507
g4
F0.533145314179762
sg5
F0.36282387405058447
sg6
F0.466854685820238
ssg7
g4
ssI752
(dp1508
g2
(dp1509
g4
F0.40209335992221384
sg5
F0.11530144172020242
sg6
F0.5979066400777862
ssg7
g6
ssI753
(dp1510
g2
(dp1511
g4
F0.6252772470532122
sg5
F0.6459881988715245
sg6
F0.37472275294678786
ssg7
g5
ssI754
(dp1512
g2
(dp1513
g4
F0.5222299845234994
sg5
F0.05546064616075334
sg6
F0.47777001547650055
ssg7
g4
ssI755
(dp1514
g2
(dp1515
g4
F0.9012170281192148
sg5
F0.0018974018224970108
sg6
F0.09878297188078523
ssg7
g4
ssI756
(dp1516
g2
(dp1517
g4
F0.3569537125176092
sg5
F0.2741653335529772
sg6
F0.6430462874823908
ssg7
g6
ssI757
(dp1518
g2
(dp1519
g4
F0.6336467237973995
sg5
F0.12084283592857376
sg6
F0.3663532762026005
ssg7
g4
ssI758
(dp1520
g2
(dp1521
g4
F0.4134449706594555
sg5
F0.3587267335355872
sg6
F0.5865550293405445
ssg7
g6
ssI759
(dp1522
g2
(dp1523
g4
F0.4027670623413516
sg5
F0.18926980320735165
sg6
F0.5972329376586484
ssg7
g6
ssI760
(dp1524
g2
(dp1525
g4
F0.6300352501086394
sg5
F0.19931039851529453
sg6
F0.36996474989136063
ssg7
g4
ssI761
(dp1526
g2
(dp1527
g4
F0.6205647957249585
sg5
F0.4173159965024144
sg6
F0.37943520427504146
ssg7
g4
ssI762
(dp1528
g2
(dp1529
g4
F0.49099015975128535
sg5
F0.9961643967455762
sg6
F0.5090098402487147
ssg7
g5
ssI763
(dp1530
g2
(dp1531
g4
F0.40741633643330166
sg5
F0.1853745516904323
sg6
F0.5925836635666983
ssg7
g6
ssI764
(dp1532
g2
(dp1533
g4
F0.5030745509446338
sg5
F0.1881951654501222
sg6
F0.4969254490553662
ssg7
g4
ssI765
(dp1534
g2
(dp1535
g4
F0.7615824219297365
sg5
F0.18791995669349945
sg6
F0.23841757807026356
ssg7
g4
ssI766
(dp1536
g2
(dp1537
g4
F0.4230225808314697
sg5
F0.43825541573860005
sg6
F0.5769774191685303
ssg7
g6
ssI767
(dp1538
g2
(dp1539
g4
F0.8761647568924664
sg5
F0.36798583478610186
sg6
F0.12383524310753354
ssg7
g4
ssI768
(dp1540
g2
(dp1541
g4
F0.5457804854178452
sg5
F0.17452737415138528
sg6
F0.4542195145821548
ssg7
g4
ssI769
(dp1542
g2
(dp1543
g4
F0.47739630397613586
sg5
F0.47863237080197524
sg6
F0.5226036960238641
ssg7
g6
ssI770
(dp1544
g2
(dp1545
g4
F0.5285733799281267
sg5
F0.22578219556921053
sg6
F0.4714266200718733
ssg7
g4
ssI771
(dp1546
g2
(dp1547
g4
F0.7865567975804286
sg5
F0.16280050025064724
sg6
F0.21344320241957135
ssg7
g4
ssI772
(dp1548
g2
(dp1549
g4
F0.5719775350874956
sg5
F0.3736927710555718
sg6
F0.4280224649125044
ssg7
g4
ssI773
(dp1550
g2
(dp1551
g4
F0.6753098495690015
sg5
F0.14972177735706874
sg6
F0.3246901504309984
ssg7
g4
ssI774
(dp1552
g2
(dp1553
g4
F0.655995206328563
sg5
F0.39508906140405475
sg6
F0.34400479367143694
ssg7
g4
ssI775
(dp1554
g2
(dp1555
g4
F0.4629756531373246
sg5
F0.38604411908135994
sg6
F0.5370243468626754
ssg7
g6
ssI776
(dp1556
g2
(dp1557
g4
F0.5487346071077128
sg5
F0.1482704990934691
sg6
F0.4512653928922871
ssg7
g4
ssI777
(dp1558
g2
(dp1559
g4
F0.6800756840138353
sg5
F0.245960493279621
sg6
F0.3199243159861646
ssg7
g4
ssI778
(dp1560
g2
(dp1561
g4
F0.7258071533214201
sg5
F0.03352601714075781
sg6
F0.2741928466785799
ssg7
g4
ssI779
(dp1562
g2
(dp1563
g4
F0.36260537491105505
sg5
F0.0418216933970015
sg6
F0.637394625088945
ssg7
g6
ssI780
(dp1564
g2
(dp1565
g4
F0.6463488559669719
sg5
F0.11925165443977881
sg6
F0.3536511440330281
ssg7
g4
ssI781
(dp1566
g2
(dp1567
g4
F0.5056906072251308
sg5
F0.26058665999197606
sg6
F0.4943093927748691
ssg7
g4
ssI782
(dp1568
g2
(dp1569
g4
F0.46198097382843173
sg5
F0.3737809456744288
sg6
F0.5380190261715683
ssg7
g6
ssI783
(dp1570
g2
(dp1571
g4
F0.4935862611423051
sg5
F0.350485540332049
sg6
F0.5064137388576949
ssg7
g6
ssI784
(dp1572
g2
(dp1573
g4
F0.6771074983496645
sg5
F0.06249922187297671
sg6
F0.3228925016503354
ssg7
g4
ssI785
(dp1574
g2
(dp1575
g4
F0.8041833610409247
sg5
F0.171439636033739
sg6
F0.1958166389590753
ssg7
g4
ssI786
(dp1576
g2
(dp1577
g4
F0.660886329922276
sg5
F0.34735857709216544
sg6
F0.33911367007772397
ssg7
g4
ssI787
(dp1578
g2
(dp1579
g4
F0.2852358043883063
sg5
F0.18885410587797247
sg6
F0.7147641956116937
ssg7
g6
ssI788
(dp1580
g2
(dp1581
g4
F0.6154403145147952
sg5
F0.27870384627150196
sg6
F0.3845596854852048
ssg7
g4
ssI789
(dp1582
g2
(dp1583
g4
F0.5113672027694879
sg5
F0.11560404652563334
sg6
F0.4886327972305121
ssg7
g4
ssI790
(dp1584
g2
(dp1585
g4
F0.6105887335618041
sg5
F0.19945478516749252
sg6
F0.38941126643819585
ssg7
g4
ssI791
(dp1586
g2
(dp1587
g4
F0.46110337453223904
sg5
F0.19017129716100298
sg6
F0.538896625467761
ssg7
g6
ssI792
(dp1588
g2
(dp1589
g4
F0.7231470523723342
sg5
F0.127007364245221
sg6
F0.2768529476276658
ssg7
g4
ssI793
(dp1590
g2
(dp1591
g4
F0.669790450951791
sg5
F0.05622965775028054
sg6
F0.330209549048209
ssg7
g4
ssI794
(dp1592
g2
(dp1593
g4
F0.6650834450928624
sg5
F0.12685581800360093
sg6
F0.33491655490713756
ssg7
g4
ssI795
(dp1594
g2
(dp1595
g4
F0.7430191368549344
sg5
F0.9252656375165808
sg6
F0.25698086314506563
ssg7
g5
ssI796
(dp1596
g2
(dp1597
g4
F0.6197367747029014
sg5
F0.5724378737958215
sg6
F0.3802632252970986
ssg7
g5
ssI797
(dp1598
g2
(dp1599
g4
F0.8393811124419662
sg5
F0.06965638067699079
sg6
F0.1606188875580338
ssg7
g4
ssI798
(dp1600
g2
(dp1601
g4
F0.5378680632377986
sg5
F0.4566456017822305
sg6
F0.46213193676220143
ssg7
g4
ssI799
(dp1602
g2
(dp1603
g4
F0.6294733360665402
sg5
F0.9660427977341044
sg6
F0.3705266639334598
ssg7
g5
ssI800
(dp1604
g2
(dp1605
g4
F0.39696951918085777
sg5
F0.8504694680220609
sg6
F0.6030304808191422
ssg7
g5
ssI801
(dp1606
g2
(dp1607
g4
F0.5019534305730436
sg5
F0.6284122212132411
sg6
F0.49804656942695635
ssg7
g5
ssI802
(dp1608
g2
(dp1609
g4
F0.6427721498371151
sg5
F0.24034368248502117
sg6
F0.35722785016288494
ssg7
g4
ssI803
(dp1610
g2
(dp1611
g4
F0.7422684204322743
sg5
F0.1393023496099216
sg6
F0.2577315795677258
ssg7
g4
ssI804
(dp1612
g2
(dp1613
g4
F0.7419804206659046
sg5
F0.38090536977473727
sg6
F0.2580195793340954
ssg7
g4
ssI805
(dp1614
g2
(dp1615
g4
F0.44666382925339776
sg5
F0.005229354163646571
sg6
F0.5533361707466022
ssg7
g6
ssI806
(dp1616
g2
(dp1617
g4
F0.7107740205781232
sg5
F0.9036039345139643
sg6
F0.28922597942187683
ssg7
g5
ssI807
(dp1618
g2
(dp1619
g4
F0.4147983690490773
sg5
F0.4376857547440724
sg6
F0.5852016309509227
ssg7
g6
ssI808
(dp1620
g2
(dp1621
g4
F0.6676606545292342
sg5
F0.8068024591035666
sg6
F0.3323393454707658
ssg7
g5
ssI809
(dp1622
g2
(dp1623
g4
F0.40319654449675857
sg5
F0.39926033191134097
sg6
F0.5968034555032414
ssg7
g6
ssI810
(dp1624
g2
(dp1625
g4
F0.2903574486142405
sg5
F0.5029338149604459
sg6
F0.7096425513857595
ssg7
g5
ssI811
(dp1626
g2
(dp1627
g4
F0.7228163575917076
sg5
F0.1541669035237435
sg6
F0.2771836424082924
ssg7
g4
ssI812
(dp1628
g2
(dp1629
g4
F0.5401552623147534
sg5
F0.7211654062903549
sg6
F0.4598447376852466
ssg7
g5
ssI813
(dp1630
g2
(dp1631
g4
F0.6702683611826066
sg5
F0.07941803370713525
sg6
F0.32973163881739337
ssg7
g4
ssI814
(dp1632
g2
(dp1633
g4
F0.5580753669914735
sg5
F0.45836235464597835
sg6
F0.44192463300852647
ssg7
g4
ssI815
(dp1634
g2
(dp1635
g4
F0.8827684361783246
sg5
F0.010811980904135819
sg6
F0.1172315638216754
ssg7
g4
ssI816
(dp1636
g2
(dp1637
g4
F0.45919046046364276
sg5
F0.392481294367845
sg6
F0.5408095395363572
ssg7
g6
ssI817
(dp1638
g2
(dp1639
g4
F0.7127440908199879
sg5
F0.2740660680158429
sg6
F0.2872559091800121
ssg7
g4
ssI818
(dp1640
g2
(dp1641
g4
F0.5826543010470986
sg5
F0.2238257795006772
sg6
F0.41734569895290147
ssg7
g4
ssI819
(dp1642
g2
(dp1643
g4
F0.4327001111764023
sg5
F0.8522449090335642
sg6
F0.5672998888235977
ssg7
g5
ssI820
(dp1644
g2
(dp1645
g4
F0.8900605333513645
sg5
F0.39654921145316174
sg6
F0.10993946664863558
ssg7
g4
ssI821
(dp1646
g2
(dp1647
g4
F0.6624880325565723
sg5
F0.3122752471742
sg6
F0.3375119674434277
ssg7
g4
ssI822
(dp1648
g2
(dp1649
g4
F0.7769578956985971
sg5
F0.34339159204480135
sg6
F0.2230421043014029
ssg7
g4
ssI823
(dp1650
g2
(dp1651
g4
F0.586426130497959
sg5
F0.3668575966190302
sg6
F0.413573869502041
ssg7
g4
ssI824
(dp1652
g2
(dp1653
g4
F0.4167121485557215
sg5
F0.21458098444587861
sg6
F0.5832878514442785
ssg7
g6
ssI825
(dp1654
g2
(dp1655
g4
F0.5036409737190829
sg5
F0.6755796497134318
sg6
F0.4963590262809171
ssg7
g5
ssI826
(dp1656
g2
(dp1657
g4
F0.6535359690032239
sg5
F0.25592687026477245
sg6
F0.34646403099677614
ssg7
g4
ssI827
(dp1658
g2
(dp1659
g4
F0.6241463747480607
sg5
F0.47139720368372234
sg6
F0.3758536252519394
ssg7
g4
ssI828
(dp1660
g2
(dp1661
g4
F0.46442504159546705
sg5
F0.1689352498850464
sg6
F0.535574958404533
ssg7
g6
ssI829
(dp1662
g2
(dp1663
g4
F0.5575503469222711
sg5
F0.7776564932218086
sg6
F0.4424496530777289
ssg7
g5
ssI830
(dp1664
g2
(dp1665
g4
F0.4996484908187525
sg5
F0.4818049081792173
sg6
F0.5003515091812475
ssg7
g6
ssI831
(dp1666
g2
(dp1667
g4
F0.48139803383283486
sg5
F0.13453122381876298
sg6
F0.5186019661671651
ssg7
g6
ssI832
(dp1668
g2
(dp1669
g4
F0.3865314293017432
sg5
F0.5967565280743908
sg6
F0.6134685706982568
ssg7
g5
ssI833
(dp1670
g2
(dp1671
g4
F0.4296953908411947
sg5
F0.13171041920160467
sg6
F0.5703046091588053
ssg7
g6
ssI834
(dp1672
g2
(dp1673
g4
F0.5145235728817251
sg5
F0.2788310039367697
sg6
F0.4854764271182749
ssg7
g4
ssI835
(dp1674
g2
(dp1675
g4
F0.5254498868319035
sg5
F0.002708329738797834
sg6
F0.4745501131680964
ssg7
g4
ssI836
(dp1676
g2
(dp1677
g4
F0.5754694006419607
sg5
F0.15738017049333178
sg6
F0.42453059935803933
ssg7
g4
ssI837
(dp1678
g2
(dp1679
g4
F0.4934435326954988
sg5
F0.33840218895271285
sg6
F0.5065564673045012
ssg7
g6
ssI838
(dp1680
g2
(dp1681
g4
F0.7549710909617502
sg5
F0.3033564434791226
sg6
F0.2450289090382498
ssg7
g4
ssI839
(dp1682
g2
(dp1683
g4
F0.6517496382679703
sg5
F0.3335033892313503
sg6
F0.3482503617320297
ssg7
g4
ssI840
(dp1684
g2
(dp1685
g4
F0.49346750841958154
sg5
F0.25165225383851864
sg6
F0.5065324915804185
ssg7
g6
ssI841
(dp1686
g2
(dp1687
g4
F0.62343297237979
sg5
F0.3102067662598183
sg6
F0.37656702762021005
ssg7
g4
ssI842
(dp1688
g2
(dp1689
g4
F0.5906172065745191
sg5
F0.17543397989334633
sg6
F0.4093827934254809
ssg7
g4
ssI843
(dp1690
g2
(dp1691
g4
F0.38858221149472627
sg5
F0.5537792249722168
sg6
F0.6114177885052737
ssg7
g5
ssI844
(dp1692
g2
(dp1693
g4
F0.6653079517875784
sg5
F0.3091973227184698
sg6
F0.33469204821242154
ssg7
g4
ssI845
(dp1694
g2
(dp1695
g4
F0.7078738932843174
sg5
F0.1940833616598625
sg6
F0.2921261067156827
ssg7
g4
ssI846
(dp1696
g2
(dp1697
g4
F0.31913587436937285
sg5
F0.42382577950067724
sg6
F0.6808641256306271
ssg7
g6
ssI847
(dp1698
g2
(dp1699
g4
F0.4461602356553259
sg5
F0.04603763038688599
sg6
F0.5538397643446741
ssg7
g6
ssI848
(dp1700
g2
(dp1701
g4
F0.4258648149205042
sg5
F0.9396399659772515
sg6
F0.5741351850794958
ssg7
g5
ssI849
(dp1702
g2
(dp1703
g4
F0.679096425883637
sg5
F0.15627878208132207
sg6
F0.32090357411636306
ssg7
g4
ssI850
(dp1704
g2
(dp1705
g4
F0.5894433435827449
sg5
F0.14987599798336915
sg6
F0.4105566564172551
ssg7
g4
ssI851
(dp1706
g2
(dp1707
g4
F0.49117487650464964
sg5
F0.5365203920040632
sg6
F0.5088251234953504
ssg7
g5
ssI852
(dp1708
g2
(dp1709
g4
F0.6818047297918789
sg5
F0.16958386130091907
sg6
F0.3181952702081211
ssg7
g4
ssI853
(dp1710
g2
(dp1711
g4
F0.6370983770408749
sg5
F0.07655859728481583
sg6
F0.3629016229591251
ssg7
g4
ssI854
(dp1712
g2
(dp1713
g4
F0.6572762149494088
sg5
F0.45249661241117733
sg6
F0.3427237850505912
ssg7
g4
ssI855
(dp1714
g2
(dp1715
g4
F0.45807861024198604
sg5
F0.16270890289511372
sg6
F0.541921389758014
ssg7
g6
ssI856
(dp1716
g2
(dp1717
g4
F0.6770856659655344
sg5
F0.11394760623031093
sg6
F0.3229143340344655
ssg7
g4
ssI857
(dp1718
g2
(dp1719
g4
F0.6690855014703005
sg5
F0.711544453311224
sg6
F0.33091449852969945
ssg7
g5
ssI858
(dp1720
g2
(dp1721
g4
F0.5901941515416542
sg5
F0.3106207307512328
sg6
F0.4098058484583458
ssg7
g4
ssI859
(dp1722
g2
(dp1723
g4
F0.31222916330379835
sg5
F0.48692793766017023
sg6
F0.6877708366962016
ssg7
g6
ssI860
(dp1724
g2
(dp1725
g4
F0.7152285843041609
sg5
F0.05087712514013876
sg6
F0.2847714156958391
ssg7
g4
ssI861
(dp1726
g2
(dp1727
g4
F0.32849775396635106
sg5
F0.4884413273371934
sg6
F0.6715022460336489
ssg7
g6
ssI862
(dp1728
g2
(dp1729
g4
F0.5901669899158681
sg5
F0.3586539608392405
sg6
F0.40983301008413187
ssg7
g4
ssI863
(dp1730
g2
(dp1731
g4
F0.541782624321773
sg5
F0.3542633400851165
sg6
F0.45821737567822696
ssg7
g4
ssI864
(dp1732
g2
(dp1733
g4
F0.38311206391445807
sg5
F0.16969806483831273
sg6
F0.6168879360855419
ssg7
g6
ssI865
(dp1734
g2
(dp1735
g4
F0.43082741427658966
sg5
F0.3901674715796543
sg6
F0.5691725857234103
ssg7
g6
ssI866
(dp1736
g2
(dp1737
g4
F0.6557694437315055
sg5
F0.06147169704974407
sg6
F0.3442305562684945
ssg7
g4
ssI867
(dp1738
g2
(dp1739
g4
F0.7488877300228299
sg5
F0.19219915970438936
sg6
F0.25111226997717007
ssg7
g4
ssI868
(dp1740
g2
(dp1741
g4
F0.529828034238423
sg5
F0.14881739719145837
sg6
F0.47017196576157705
ssg7
g4
ssI869
(dp1742
g2
(dp1743
g4
F0.494367649355129
sg5
F0.4672220906081998
sg6
F0.505632350644871
ssg7
g6
ssI870
(dp1744
g2
(dp1745
g4
F0.4643790901750958
sg5
F0.4219590373054427
sg6
F0.5356209098249042
ssg7
g6
ssI871
(dp1746
g2
(dp1747
g4
F0.36349752192816975
sg5
F0.7768726913203464
sg6
F0.6365024780718302
ssg7
g5
ssI872
(dp1748
g2
(dp1749
g4
F0.5387173814366146
sg5
F0.09661346220454038
sg6
F0.46128261856338537
ssg7
g4
ssI873
(dp1750
g2
(dp1751
g4
F0.3490400237077431
sg5
F0.24575041970374556
sg6
F0.6509599762922569
ssg7
g6
ssI874
(dp1752
g2
(dp1753
g4
F0.5125824626826954
sg5
F0.3488106018353773
sg6
F0.4874175373173046
ssg7
g4
ssI875
(dp1754
g2
(dp1755
g4
F0.5006819617289651
sg5
F0.7295131520661166
sg6
F0.499318038271035
ssg7
g5
ssI876
(dp1756
g2
(dp1757
g4
F0.7031415210730799
sg5
F0.12740943265126414
sg6
F0.2968584789269201
ssg7
g4
ssI877
(dp1758
g2
(dp1759
g4
F0.5095519989067516
sg5
F0.5950890614040548
sg6
F0.4904480010932484
ssg7
g5
ssI878
(dp1760
g2
(dp1761
g4
F0.204829670189271
sg5
F0.17161956204609566
sg6
F0.795170329810729
ssg7
g6
ssI879
(dp1762
g2
(dp1763
g4
F0.76489738646488
sg5
F0.20506810324670435
sg6
F0.23510261353511996
ssg7
g4
ssI880
(dp1764
g2
(dp1765
g4
F0.7574455339659923
sg5
F0.7426405670757129
sg6
F0.24255446603400765
ssg7
g5
ssI881
(dp1766
g2
(dp1767
g4
F0.6103316115851457
sg5
F0.27882379790557194
sg6
F0.3896683884148543
ssg7
g4
ssI882
(dp1768
g2
(dp1769
g4
F0.6920641630434134
sg5
F0.1560280848323121
sg6
F0.30793583695658655
ssg7
g4
ssI883
(dp1770
g2
(dp1771
g4
F0.6376050782403913
sg5
F0.3541859037216237
sg6
F0.3623949217596087
ssg7
g4
ssI884
(dp1772
g2
(dp1773
g4
F0.44658357962720374
sg5
F0.3955976823727349
sg6
F0.5534164203727963
ssg7
g6
ssI885
(dp1774
g2
(dp1775
g4
F0.5835942504743522
sg5
F0.1697331003754221
sg6
F0.4164057495256478
ssg7
g4
ssI886
(dp1776
g2
(dp1777
g4
F0.590500871086944
sg5
F0.13617732246394829
sg6
F0.40949912891305595
ssg7
g4
ssI887
(dp1778
g2
(dp1779
g4
F0.7184456260680925
sg5
F0.22081571208814446
sg6
F0.2815543739319075
ssg7
g4
ssI888
(dp1780
g2
(dp1781
g4
F0.792697253758348
sg5
F0.09881704441933754
sg6
F0.207302746241652
ssg7
g4
ssI889
(dp1782
g2
(dp1783
g4
F0.5328706733831461
sg5
F0.4129203112387682
sg6
F0.46712932661685386
ssg7
g4
ssI890
(dp1784
g2
(dp1785
g4
F0.7258158669700919
sg5
F0.5245187025030167
sg6
F0.2741841330299081
ssg7
g5
ssI891
(dp1786
g2
(dp1787
g4
F0.3622022944556481
sg5
F0.01940402977363991
sg6
F0.6377977055443519
ssg7
g6
ssI892
(dp1788
g2
(dp1789
g4
F0.5645288262812587
sg5
F0.030375811453868275
sg6
F0.4354711737187414
ssg7
g4
ssI893
(dp1790
g2
(dp1791
g4
F0.5189449928558865
sg5
F0.6423235908498276
sg6
F0.48105500714411353
ssg7
g5
ssI894
(dp1792
g2
(dp1793
g4
F0.8389841681961938
sg5
F0.14837876375638206
sg6
F0.16101583180380624
ssg7
g4
ssI895
(dp1794
g2
(dp1795
g4
F0.36304433308582285
sg5
F0.6769297031736125
sg6
F0.6369556669141772
ssg7
g5
ssI896
(dp1796
g2
(dp1797
g4
F0.5542617419196889
sg5
F0.35693026071256767
sg6
F0.4457382580803111
ssg7
g4
ssI897
(dp1798
g2
(dp1799
g4
F0.48360874323138325
sg5
F0.6124318648130064
sg6
F0.5163912567686167
ssg7
g5
ssI898
(dp1800
g2
(dp1801
g4
F0.6932530233325617
sg5
F0.2212448240859155
sg6
F0.30674697666743833
ssg7
g4
ssI899
(dp1802
g2
(dp1803
g4
F0.6655280607308122
sg5
F0.817289171339433
sg6
F0.33447193926918783
ssg7
g5
ssI900
(dp1804
g2
(dp1805
g4
F0.4657043076631213
sg5
F0.5227495012873798
sg6
F0.5342956923368787
ssg7
g5
ssI901
(dp1806
g2
(dp1807
g4
F0.8003296115638686
sg5
F0.21797197585666003
sg6
F0.19967038843613139
ssg7
g4
ssI902
(dp1808
g2
(dp1809
g4
F0.8598708506839401
sg5
F0.027485385752526792
sg6
F0.1401291493160599
ssg7
g4
ssI903
(dp1810
g2
(dp1811
g4
F0.63035481740772
sg5
F0.2714127435089451
sg6
F0.36964518259227996
ssg7
g4
ssI904
(dp1812
g2
(dp1813
g4
F0.34268002457383884
sg5
F0.40953819877965286
sg6
F0.6573199754261612
ssg7
g6
ssI905
(dp1814
g2
(dp1815
g4
F0.5437812205976337
sg5
F0.23293637133382553
sg6
F0.4562187794023663
ssg7
g4
ssI906
(dp1816
g2
(dp1817
g4
F0.5866640207117585
sg5
F0.6173520492040666
sg6
F0.4133359792882415
ssg7
g5
ssI907
(dp1818
g2
(dp1819
g4
F0.568176642403231
sg5
F0.5348859633184037
sg6
F0.43182335759676904
ssg7
g5
ssI908
(dp1820
g2
(dp1821
g4
F0.6543400100280214
sg5
F0.13238284072611337
sg6
F0.3456599899719785
ssg7
g4
ssI909
(dp1822
g2
(dp1823
g4
F0.481755424367194
sg5
F0.2738729582419916
sg6
F0.518244575632806
ssg7
g6
ssI910
(dp1824
g2
(dp1825
g4
F0.6799309531856184
sg5
F0.3279288938007906
sg6
F0.3200690468143816
ssg7
g4
ssI911
(dp1826
g2
(dp1827
g4
F0.6571077865636648
sg5
F0.09906307500304683
sg6
F0.3428922134363353
ssg7
g4
ssI912
(dp1828
g2
(dp1829
g4
F0.6577144719386361
sg5
F0.1332104173297494
sg6
F0.3422855280613639
ssg7
g4
ssI913
(dp1830
g2
(dp1831
g4
F0.513842666357532
sg5
F0.8208417128599034
sg6
F0.4861573336424681
ssg7
g5
ssI914
(dp1832
g2
(dp1833
g4
F0.7277123414459594
sg5
F0.11813130716450317
sg6
F0.2722876585540406
ssg7
g4
ssI915
(dp1834
g2
(dp1835
g4
F0.4996484908187525
sg5
F0.4818049081792173
sg6
F0.5003515091812475
ssg7
g6
ssI916
(dp1836
g2
(dp1837
g4
F0.5579246106460353
sg5
F0.18069210372095348
sg6
F0.44207538935396473
ssg7
g4
ssI917
(dp1838
g2
(dp1839
g4
F0.8059382079036521
sg5
F0.16666738432873737
sg6
F0.19406179209634794
ssg7
g4
ssI918
(dp1840
g2
(dp1841
g4
F0.5677450171831795
sg5
F0.6744372701898599
sg6
F0.43225498281682045
ssg7
g5
ssI919
(dp1842
g2
(dp1843
g4
F0.8601937375326676
sg5
F0.7821830734796317
sg6
F0.13980626246733244
ssg7
g5
ssI920
(dp1844
g2
(dp1845
g4
F0.7704096093092629
sg5
F0.15487896804009701
sg6
F0.22959039069073706
ssg7
g4
ssI921
(dp1846
g2
(dp1847
g4
F0.7377492602249417
sg5
F0.14026757559306097
sg6
F0.2622507397750583
ssg7
g4
ssI922
(dp1848
g2
(dp1849
g4
F0.27163281093715297
sg5
F0.40381589297904097
sg6
F0.728367189062847
ssg7
g6
ssI923
(dp1850
g2
(dp1851
g4
F0.46264100330431357
sg5
F0.7033004679208507
sg6
F0.5373589966956864
ssg7
g5
ssI924
(dp1852
g2
(dp1853
g4
F0.6417506847916841
sg5
F0.12233947453319914
sg6
F0.358249315208316
ssg7
g4
ssI925
(dp1854
g2
(dp1855
g4
F0.36990231629988457
sg5
F0.42161829848728666
sg6
F0.6300976837001154
ssg7
g6
ssI926
(dp1856
g2
(dp1857
g4
F0.7553308268366693
sg5
F0.3747833254003952
sg6
F0.24466917316333073
ssg7
g4
ssI927
(dp1858
g2
(dp1859
g4
F0.5151793567674552
sg5
F0.5049362684428919
sg6
F0.4848206432325448
ssg7
g5
ssI928
(dp1860
g2
(dp1861
g4
F0.45120487914935814
sg5
F0.5212180495179434
sg6
F0.5487951208506419
ssg7
g5
ssI929
(dp1862
g2
(dp1863
g4
F0.6289674143592296
sg5
F0.1083530312745431
sg6
F0.3710325856407703
ssg7
g4
ssI930
(dp1864
g2
(dp1865
g4
F0.78057991804548
sg5
F0.6862324102188474
sg6
F0.21942008195451995
ssg7
g5
ssI931
(dp1866
g2
(dp1867
g4
F0.4005212009465242
sg5
F0.0675743347228336
sg6
F0.5994787990534758
ssg7
g6
ssI932
(dp1868
g2
(dp1869
g4
F0.45924409205711947
sg5
F0.35631452269806085
sg6
F0.5407559079428805
ssg7
g6
ssI933
(dp1870
g2
(dp1871
g4
F0.771782465152204
sg5
F0.17498666895910162
sg6
F0.22821753484779606
ssg7
g4
ssI934
(dp1872
g2
(dp1873
g4
F0.621508690286595
sg5
F0.07203838230730387
sg6
F0.3784913097134051
ssg7
g4
ssI935
(dp1874
g2
(dp1875
g4
F0.45349094211291185
sg5
F0.33924498540166587
sg6
F0.5465090578870881
ssg7
g6
ssI936
(dp1876
g2
(dp1877
g4
F0.49233052361881025
sg5
F0.14510173241548135
sg6
F0.5076694763811898
ssg7
g6
ssI937
(dp1878
g2
(dp1879
g4
F0.504975549193405
sg5
F0.16007165008458452
sg6
F0.49502445080659496
ssg7
g4
ssI938
(dp1880
g2
(dp1881
g4
F0.3793133806609803
sg5
F0.4579121914606333
sg6
F0.6206866193390197
ssg7
g6
ssI939
(dp1882
g2
(dp1883
g4
F0.40572693669489
sg5
F0.34510485755847103
sg6
F0.59427306330511
ssg7
g6
ssI940
(dp1884
g2
(dp1885
g4
F0.6187879131979184
sg5
F0.3819059096584631
sg6
F0.38121208680208163
ssg7
g4
ssI941
(dp1886
g2
(dp1887
g4
F0.45127411938810125
sg5
F0.16050418190110793
sg6
F0.5487258806118988
ssg7
g6
ssI942
(dp1888
g2
(dp1889
g4
F0.5462274806954909
sg5
F0.19287751874599804
sg6
F0.4537725193045091
ssg7
g4
ssI943
(dp1890
g2
(dp1891
g4
F0.8575389456637957
sg5
F0.529540508905662
sg6
F0.14246105433620426
ssg7
g5
ssI944
(dp1892
g2
(dp1893
g4
F0.33622297997225525
sg5
F0.7531630537670567
sg6
F0.6637770200277447
ssg7
g5
ssI945
(dp1894
g2
(dp1895
g4
F0.6648666447543633
sg5
F0.561280253573774
sg6
F0.3351333552456367
ssg7
g5
ssI946
(dp1896
g2
(dp1897
g4
F0.5443399952875592
sg5
F0.19543679069086975
sg6
F0.4556600047124408
ssg7
g4
ssI947
(dp1898
g2
(dp1899
g4
F0.7146015408242496
sg5
F0.5578480561520606
sg6
F0.2853984591757504
ssg7
g5
ssI948
(dp1900
g2
(dp1901
g4
F0.6548735109214718
sg5
F0.26838632792698125
sg6
F0.34512648907852816
ssg7
g4
ssI949
(dp1902
g2
(dp1903
g4
F0.6284100052080277
sg5
F0.003610383784018474
sg6
F0.37158999479197224
ssg7
g4
ssI950
(dp1904
g2
(dp1905
g4
F0.5528300306822785
sg5
F0.5277458807144351
sg6
F0.44716996931772146
ssg7
g5
ssI951
(dp1906
g2
(dp1907
g4
F0.6506479975524816
sg5
F0.3988323226129224
sg6
F0.3493520024475184
ssg7
g4
ssI952
(dp1908
g2
(dp1909
g4
F0.4021195185167853
sg5
F0.03808651200274779
sg6
F0.5978804814832147
ssg7
g6
ssI953
(dp1910
g2
(dp1911
g4
F0.7896466990514086
sg5
F0.10293709689262798
sg6
F0.21035330094859142
ssg7
g4
ssI954
(dp1912
g2
(dp1913
g4
F0.5956967657464224
sg5
F0.25451817018177286
sg6
F0.4043032342535776
ssg7
g4
ssI955
(dp1914
g2
(dp1915
g4
F0.4912414933101822
sg5
F0.19223504548107076
sg6
F0.5087585066898178
ssg7
g6
ssI956
(dp1916
g2
(dp1917
g4
F0.4993307936807194
sg5
F0.7890699218607319
sg6
F0.5006692063192806
ssg7
g5
ssI957
(dp1918
g2
(dp1919
g4
F0.7359805495448648
sg5
F0.3974959152097246
sg6
F0.2640194504551352
ssg7
g4
ssI958
(dp1920
g2
(dp1921
g4
F0.4607019927279482
sg5
F0.6342830163966955
sg6
F0.5392980072720518
ssg7
g5
ssI959
(dp1922
g2
(dp1923
g4
F0.3320541741672668
sg5
F0.3168471492726803
sg6
F0.6679458258327332
ssg7
g6
ssI960
(dp1924
g2
(dp1925
g4
F0.8088458016449855
sg5
F0.06160363438559249
sg6
F0.19115419835501452
ssg7
g4
ssI961
(dp1926
g2
(dp1927
g4
F0.46525594063556186
sg5
F0.4379718714286822
sg6
F0.5347440593644381
ssg7
g6
ssI962
(dp1928
g2
(dp1929
g4
F0.5421422424230746
sg5
F0.4702248984102993
sg6
F0.4578577575769253
ssg7
g4
ssI963
(dp1930
g2
(dp1931
g4
F0.5143343821981673
sg5
F0.3583679357196328
sg6
F0.4856656178018327
ssg7
g4
ssI964
(dp1932
g2
(dp1933
g4
F0.4607019927279482
sg5
F0.6342830163966955
sg6
F0.5392980072720518
ssg7
g5
ssI965
(dp1934
g2
(dp1935
g4
F0.5633022630776737
sg5
F0.4902054387330335
sg6
F0.4366977369223263
ssg7
g4
ssI966
(dp1936
g2
(dp1937
g4
F0.49067113548879193
sg5
F0.4327067449853514
sg6
F0.5093288645112081
ssg7
g6
ssI967
(dp1938
g2
(dp1939
g4
F0.5611295553824998
sg5
F0.10540239541139913
sg6
F0.4388704446175003
ssg7
g4
ssI968
(dp1940
g2
(dp1941
g4
F0.3681231684364282
sg5
F0.19840632166031733
sg6
F0.6318768315635718
ssg7
g6
ssI969
(dp1942
g2
(dp1943
g4
F0.7721672622094802
sg5
F0.0833986749205868
sg6
F0.22783273779051982
ssg7
g4
ssI970
(dp1944
g2
(dp1945
g4
F0.3643887631866578
sg5
F0.22058728748172976
sg6
F0.6356112368133422
ssg7
g6
ssI971
(dp1946
g2
(dp1947
g4
F0.3118847274102342
sg5
F0.4151080964839539
sg6
F0.6881152725897658
ssg7
g6
ssI972
(dp1948
g2
(dp1949
g4
F0.5767319438717673
sg5
F0.653796783782619
sg6
F0.4232680561282327
ssg7
g5
ssI973
(dp1950
g2
(dp1951
g4
F0.3936075824385942
sg5
F0.9257617760623728
sg6
F0.6063924175614058
ssg7
g5
ssI974
(dp1952
g2
(dp1953
g4
F0.5904952091351838
sg5
F0.07373917384340345
sg6
F0.4095047908648161
ssg7
g4
ssI975
(dp1954
g2
(dp1955
g4
F0.7206316021517227
sg5
F0.9126409097566773
sg6
F0.2793683978482773
ssg7
g5
ssI976
(dp1956
g2
(dp1957
g4
F0.4996484908187525
sg5
F0.48180490817921723
sg6
F0.5003515091812475
ssg7
g6
ssI977
(dp1958
g2
(dp1959
g4
F0.6752225395225331
sg5
F0.21592931546258395
sg6
F0.32477746047746686
ssg7
g4
ssI978
(dp1960
g2
(dp1961
g4
F0.6158936305029539
sg5
F0.23407150200397808
sg6
F0.38410636949704613
ssg7
g4
ssI979
(dp1962
g2
(dp1963
g4
F0.7512544581184775
sg5
F0.47404891114228126
sg6
F0.24874554188152254
ssg7
g4
ssI980
(dp1964
g2
(dp1965
g4
F0.6974105522631375
sg5
F0.2367127035374459
sg6
F0.3025894477368624
ssg7
g4
ssI981
(dp1966
g2
(dp1967
g4
F0.5579812211081514
sg5
F0.7416773917432726
sg6
F0.4420187788918486
ssg7
g5
ssI982
(dp1968
g2
(dp1969
g4
F0.6808910848639438
sg5
F0.1576573642191095
sg6
F0.3191089151360562
ssg7
g4
ssI983
(dp1970
g2
(dp1971
g4
F0.843899202372118
sg5
F0.6786837690370128
sg6
F0.15610079762788195
ssg7
g5
ssI984
(dp1972
g2
(dp1973
g4
F0.5287275720631919
sg5
F0.16654803932771214
sg6
F0.4712724279368082
ssg7
g4
ssI985
(dp1974
g2
(dp1975
g4
F0.6154299495086346
sg5
F0.5598459559404702
sg6
F0.38457005049136544
ssg7
g5
ssI986
(dp1976
g2
(dp1977
g4
F0.4358188526258219
sg5
F0.187269137685829
sg6
F0.5641811473741781
ssg7
g6
ssI987
(dp1978
g2
(dp1979
g4
F0.5978339693017354
sg5
F0.1954322578682501
sg6
F0.4021660306982646
ssg7
g4
ssI988
(dp1980
g2
(dp1981
g4
F0.6289674143592296
sg5
F0.1083530312745431
sg6
F0.3710325856407703
ssg7
g4
ssI989
(dp1982
g2
(dp1983
g4
F0.8091014570891573
sg5
F0.13390277674933007
sg6
F0.1908985429108428
ssg7
g4
ssI990
(dp1984
g2
(dp1985
g4
F0.46991761049412806
sg5
F0.4363667866973619
sg6
F0.5300823895058719
ssg7
g6
ssI991
(dp1986
g2
(dp1987
g4
F0.7881187988717981
sg5
F0.040262208814662075
sg6
F0.21188120112820186
ssg7
g4
ssI992
(dp1988
g2
(dp1989
g4
F0.5599134129299292
sg5
F0.6376479290149701
sg6
F0.4400865870700707
ssg7
g5
ssI993
(dp1990
g2
(dp1991
g4
F0.7503736265335595
sg5
F0.1746539480812276
sg6
F0.24962637346644045
ssg7
g4
ssI994
(dp1992
g2
(dp1993
g4
F0.4501733175383196
sg5
F0.17922838230535998
sg6
F0.5498266824616804
ssg7
g6
ssI995
(dp1994
g2
(dp1995
g4
F0.6899519652717022
sg5
F0.14089873363261562
sg6
F0.3100480347282978
ssg7
g4
ssI996
(dp1996
g2
(dp1997
g4
F0.6369956292307792
sg5
F0.8331685940555124
sg6
F0.36300437076922076
ssg7
g5
ssI997
(dp1998
g2
(dp1999
g4
F0.5974698149156809
sg5
F0.42988645001900183
sg6
F0.40253018508431915
ssg7
g4
ssI998
(dp2000
g2
(dp2001
g4
F0.6006120720037837
sg5
F0.15560214613729695
sg6
F0.3993879279962163
ssg7
g4
ssI999
(dp2002
g2
(dp2003
g4
F0.6155786527695666
sg5
F0.3447889034053963
sg6
F0.38442134723043336
ssg7
g4
ssI1000
(dp2004
g2
(dp2005
g4
F0.8086107828040645
sg5
F0.06675447835435072
sg6
F0.19138921719593546
ssg7
g4
ssI1001
(dp2006
g2
(dp2007
g4
F0.524869497451515
sg5
F0.40532566986122315
sg6
F0.475130502548485
ssg7
g4
ssI1002
(dp2008
g2
(dp2009
g4
F0.6442861786167124
sg5
F0.1896456915877329
sg6
F0.3557138213832876
ssg7
g4
ssI1003
(dp2010
g2
(dp2011
g4
F0.519682820432217
sg5
F0.36284710999769915
sg6
F0.4803171795677829
ssg7
g4
ssI1004
(dp2012
g2
(dp2013
g4
F0.41337846233830755
sg5
F0.8528393034203269
sg6
F0.5866215376616924
ssg7
g5
ssI1005
(dp2014
g2
(dp2015
g4
F0.5409713497189692
sg5
F0.44292671883819645
sg6
F0.4590286502810308
ssg7
g4
ssI1006
(dp2016
g2
(dp2017
g4
F0.640798963059607
sg5
F0.1005709226888622
sg6
F0.35920103694039296
ssg7
g4
ssI1007
(dp2018
g2
(dp2019
g4
F0.6138074388536333
sg5
F0.0673054660008422
sg6
F0.3861925611463667
ssg7
g4
ssI1008
(dp2020
g2
(dp2021
g4
F0.5508330259227519
sg5
F0.2019968906650951
sg6
F0.44916697407724815
ssg7
g4
ssI1009
(dp2022
g2
(dp2023
g4
F0.7414050530635155
sg5
F0.1917913671541384
sg6
F0.2585949469364845
ssg7
g4
ssI1010
(dp2024
g2
(dp2025
g4
F0.7698054356445349
sg5
F0.05158578970439708
sg6
F0.23019456435546515
ssg7
g4
ssI1011
(dp2026
g2
(dp2027
g4
F0.5237987641383364
sg5
F0.2599028555922949
sg6
F0.47620123586166363
ssg7
g4
ssI1012
(dp2028
g2
(dp2029
g4
F0.461185902109844
sg5
F0.41622259778918896
sg6
F0.538814097890156
ssg7
g6
ssI1013
(dp2030
g2
(dp2031
g4
F0.5312676129120989
sg5
F0.06520911204254885
sg6
F0.4687323870879011
ssg7
g4
ssI1014
(dp2032
g2
(dp2033
g4
F0.6906638074354675
sg5
F0.7210314690270977
sg6
F0.3093361925645325
ssg7
g5
ssI1015
(dp2034
g2
(dp2035
g4
F0.5524425603882268
sg5
F0.3255887944693456
sg6
F0.4475574396117732
ssg7
g4
ssI1016
(dp2036
g2
(dp2037
g4
F0.5703683824662119
sg5
F0.5011011638117407
sg6
F0.4296316175337881
ssg7
g5
ssI1017
(dp2038
g2
(dp2039
g4
F0.46003095222845103
sg5
F0.044786492164051395
sg6
F0.539969047771549
ssg7
g6
ssI1018
(dp2040
g2
(dp2041
g4
F0.32548765455759077
sg5
F0.43222504363908404
sg6
F0.6745123454424092
ssg7
g6
ssI1019
(dp2042
g2
(dp2043
g4
F0.7865633610062353
sg5
F0.35622848265858814
sg6
F0.2134366389937648
ssg7
g4
ssI1020
(dp2044
g2
(dp2045
g4
F0.6530345523834251
sg5
F0.3962307789715558
sg6
F0.3469654476165749
ssg7
g4
ssI1021
(dp2046
g2
(dp2047
g4
F0.6606533058974731
sg5
F0.1121898204825915
sg6
F0.339346694102527
ssg7
g4
ssI1022
(dp2048
g2
(dp2049
g4
F0.4652404412670158
sg5
F0.13398574966907187
sg6
F0.5347595587329842
ssg7
g6
ssI1023
(dp2050
g2
(dp2051
g4
F0.6948920996127557
sg5
F0.8353048810164677
sg6
F0.3051079003872443
ssg7
g5
ssI1024
(dp2052
g2
(dp2053
g4
F0.21206709006765356
sg5
F0.11559004702847732
sg6
F0.7879329099323464
ssg7
g6
ssI1025
(dp2054
g2
(dp2055
g4
F0.533914036662281
sg5
F0.23183425725272336
sg6
F0.466085963337719
ssg7
g4
ssI1026
(dp2056
g2
(dp2057
g4
F0.450009453010776
sg5
F0.7640459839849975
sg6
F0.549990546989224
ssg7
g5
ssI1027
(dp2058
g2
(dp2059
g4
F0.40716852660125413
sg5
F0.14137171790090722
sg6
F0.5928314733987459
ssg7
g6
ssI1028
(dp2060
g2
(dp2061
g4
F0.313264480502381
sg5
F0.18276944077672277
sg6
F0.686735519497619
ssg7
g6
ssI1029
(dp2062
g2
(dp2063
g4
F0.7439097158151854
sg5
F0.17173019367813433
sg6
F0.2560902841848146
ssg7
g4
ssI1030
(dp2064
g2
(dp2065
g4
F0.571197034891313
sg5
F0.3623701904566479
sg6
F0.428802965108687
ssg7
g4
ssI1031
(dp2066
g2
(dp2067
g4
F0.42266094115358543
sg5
F0.5274703505025153
sg6
F0.5773390588464146
ssg7
g5
ssI1032
(dp2068
g2
(dp2069
g4
F0.515543420512645
sg5
F0.6981689351669585
sg6
F0.48445657948735493
ssg7
g5
ssI1033
(dp2070
g2
(dp2071
g4
F0.6302841238114618
sg5
F0.35228174600341394
sg6
F0.36971587618853813
ssg7
g4
ssI1034
(dp2072
g2
(dp2073
g4
F0.42101055080992333
sg5
F0.5512729129602069
sg6
F0.5789894491900767
ssg7
g5
ssI1035
(dp2074
g2
(dp2075
g4
F0.5779625006765892
sg5
F0.39255531625067297
sg6
F0.4220374993234108
ssg7
g4
ssI1036
(dp2076
g2
(dp2077
g4
F0.655738150157207
sg5
F0.2634359820434136
sg6
F0.34426184984279296
ssg7
g4
ssI1037
(dp2078
g2
(dp2079
g4
F0.8382443576217553
sg5
F0.10665095678966734
sg6
F0.16175564237824464
ssg7
g4
ssI1038
(dp2080
g2
(dp2081
g4
F0.5870378696735378
sg5
F0.11209597032330469
sg6
F0.41296213032646223
ssg7
g4
ssI1039
(dp2082
g2
(dp2083
g4
F0.8091075936711654
sg5
F0.8196002537095844
sg6
F0.19089240632883464
ssg7
g5
ssI1040
(dp2084
g2
(dp2085
g4
F0.4895709151504255
sg5
F0.15832956534333623
sg6
F0.5104290848495745
ssg7
g6
ssI1041
(dp2086
g2
(dp2087
g4
F0.5095519989067516
sg5
F0.5950890614040548
sg6
F0.4904480010932484
ssg7
g5
ssI1042
(dp2088
g2
(dp2089
g4
F0.6457251591906785
sg5
F0.12001405040842106
sg6
F0.35427484080932153
ssg7
g4
ssI1043
(dp2090
g2
(dp2091
g4
F0.46008656684815397
sg5
F0.20766657622340412
sg6
F0.539913433151846
ssg7
g6
ssI1044
(dp2092
g2
(dp2093
g4
F0.43636104815263954
sg5
F0.24231539817156003
sg6
F0.5636389518473605
ssg7
g6
ssI1045
(dp2094
g2
(dp2095
g4
F0.6489366252986755
sg5
F0.5233115337125992
sg6
F0.35106337470132454
ssg7
g5
ssI1046
(dp2096
g2
(dp2097
g4
F0.8852061512595452
sg5
F0.017723973202436884
sg6
F0.11479384874045484
ssg7
g4
ssI1047
(dp2098
g2
(dp2099
g4
F0.6034714777712953
sg5
F0.8255382509746577
sg6
F0.39652852222870466
ssg7
g5
ssI1048
(dp2100
g2
(dp2101
g4
F0.40028140903650733
sg5
F0.8481084704939771
sg6
F0.5997185909634927
ssg7
g5
ssI1049
(dp2102
g2
(dp2103
g4
F0.4634125696567555
sg5
F0.34530201625222007
sg6
F0.5365874303432445
ssg7
g6
ssI1050
(dp2104
g2
(dp2105
g4
F0.3759768390981344
sg5
F0.41217580579621504
sg6
F0.6240231609018656
ssg7
g6
ss.